(dp1
S'CC'
p2
(dp3
S'0.9'
p4
(dp5
S'1041452'
p6
F0.17123419724039354
sS'831732'
p7
F0.38550172764643603
sS'1027785'
p8
F0.69599165064220414
sS'835602'
p9
F0.33622528650307748
sS'857704'
p10
F0.058726234380760377
sS'861010'
p11
F0.38444319370918034
sS'907669'
p12
F0.22718053986576509
sS'1042555'
p13
F0.21600585396006713
sS'860795'
p14
F0.21265367656001755
sS'995660'
p15
F0.085119659166096984
sS'796576'
p16
F0.084677756378787314
sS'907663'
p17
F0.31641086931480616
sS'1045138'
p18
F0.23489084798908161
sS'907881'
p19
F0.25554862558488972
sS'857669'
p20
F0.09570640840796088
sS'907609'
p21
F0.3414413436598418
sS'1023663'
p22
F0.16381969004455479
sS'1280018'
p23
F0.8973353901535599
sS'857701'
p24
F0.23992415552058072
sS'880978'
p25
F0.46044399242506207
sS'985045'
p26
F0.43788222291028323
sS'1270712'
p27
F0.42847681313488212
sS'570347'
p28
F0.043537414965986392
sS'1111869'
p29
F0.19822954231726816
sS'1343315'
p30
I0
sS'1027807'
p31
F0.67718839381070373
sS'2850836'
p32
F0.049600053774282449
sS'1343340'
p33
I0
sS'1010043'
p34
F0.35420795677684019
sS'499010'
p35
F0.24661418828088005
sS'797271'
p36
F0.29178255722208712
sS'636918'
p37
F0.17293956043956044
sS'1042538'
p38
F0.37262558116582511
sS'985077'
p39
F0.3983064384798693
sS'907796'
p40
F0.29520652847208267
sS'801187'
p41
F0.10798564735748183
sS'2998173'
p42
F0.43755052209662887
sS'1042957'
p43
F0.42020090811187921
sS'907569'
p44
F0.21888320430571795
sS'2866181'
p45
F0.37598619263759886
sS'1014794'
p46
F0.025816122584943368
sS'918302'
p47
F0.85760545067266925
sS'1023252'
p48
F0.75663036537899564
sS'871766'
p49
F0.1865773552439183
sS'1022869'
p50
F0.65450858470935036
sS'1046227'
p51
F0.25939020788395556
sS'499381'
p52
F0.27687428950679838
sS'2998182'
p53
F0.32645879482278417
sS'2867377'
p54
F0.23023085254219067
sS'1141582'
p55
F0.17780112044817928
ssS'0.1'
p56
(dp57
S'1041452'
p58
F0.31966819869205243
sS'831732'
p59
F0.32209430692968372
sS'1027785'
p60
F0.55519949591307316
sS'835602'
p61
F0.54167890908969496
sS'857704'
p62
F0.43028795792224972
sS'861010'
p63
F0.36480971364900994
sS'907669'
p64
F0.27371108798747495
sS'1042555'
p65
F0.25021554467621354
sS'860795'
p66
F0.44850466537722405
sS'995660'
p67
F0.18533058112818829
sS'796576'
p68
F0.2571300381400663
sS'907663'
p69
F0.48786426677233041
sS'1045138'
p70
F0.47208769180668264
sS'907881'
p71
F0.22240326770576949
sS'857669'
p72
F0.22444413048365897
sS'907609'
p73
F0.21880500947135939
sS'1023663'
p74
F0.2355476448455443
sS'1280018'
p75
F0.75585509530491823
sS'857701'
p76
F0.4317195210619752
sS'880978'
p77
F0.48837940597050739
sS'985045'
p78
F0.4077112705893543
sS'1270712'
p79
F0.46486498520002506
sS'570347'
p80
F0.11282051282051282
sS'1111869'
p81
F0.29938955722959248
sS'1343315'
p82
F0.037101624117891245
sS'1027807'
p83
F0.68926532049149758
sS'2850836'
p84
F0.064929480564155484
sS'1343340'
p85
F0.061422446987006864
sS'1010043'
p86
F0.42326141305070808
sS'499010'
p87
F0.35373393515416679
sS'797271'
p88
F0.23362700843983827
sS'636918'
p89
F0.10863558182443633
sS'1042538'
p90
F0.56868700744297651
sS'985077'
p91
F0.38281262581950581
sS'907796'
p92
F0.28023664931116093
sS'801187'
p93
F0.33328132368985069
sS'2998173'
p94
F0.50907378954614113
sS'1042957'
p95
F0.44319357788567965
sS'907569'
p96
F0.51748202382978237
sS'2866181'
p97
F0.28067535654085979
sS'1014794'
p98
F0.031527093596059111
sS'918302'
p99
F0.82472027154950789
sS'1023252'
p100
F0.86555317269782905
sS'871766'
p101
F0.262122206001762
sS'1022869'
p102
F0.64830088791301765
sS'1046227'
p103
F0.24305386357658756
sS'499381'
p104
F0.4408233808630948
sS'2998182'
p105
F0.17853809404163046
sS'2867377'
p106
F0.28669585687001642
sS'1141582'
p107
F0.20916818625392858
ssS'0.3'
p108
(dp109
S'1041452'
p110
F0.24351905356692663
sS'831732'
p111
F0.38940756282341704
sS'1027785'
p112
F0.53761070115935516
sS'835602'
p113
F0.38926219963494124
sS'857704'
p114
F0.4262247785827703
sS'861010'
p115
F0.39166612845878929
sS'907669'
p116
F0.2384882892544892
sS'1042555'
p117
F0.19306252264502666
sS'860795'
p118
F0.38856966824458095
sS'995660'
p119
F0.16993865230189836
sS'796576'
p120
F0.24249854462473985
sS'907663'
p121
F0.38433630340035896
sS'1045138'
p122
F0.31966458247041069
sS'907881'
p123
F0.21463105042404765
sS'857669'
p124
F0.19963218427855478
sS'907609'
p125
F0.30693990500219248
sS'1023663'
p126
F0.20827597269732323
sS'1280018'
p127
F0.77420030700263254
sS'857701'
p128
F0.37980124359920486
sS'880978'
p129
F0.4848842805531966
sS'985045'
p130
F0.43754144954697433
sS'1270712'
p131
F0.4630224148108687
sS'570347'
p132
F0.11282051282051282
sS'1111869'
p133
F0.32115431572068526
sS'1343315'
p134
F0.032187236847052582
sS'1027807'
p135
F0.67518486072138262
sS'2850836'
p136
F0.064929480564155484
sS'1343340'
p137
F0.038492892248514439
sS'1010043'
p138
F0.41637842380953261
sS'499010'
p139
F0.30251679608426535
sS'797271'
p140
F0.26966818921858443
sS'636918'
p141
F0.10853457172342622
sS'1042538'
p142
F0.4766062556855582
sS'985077'
p143
F0.35051378746279543
sS'907796'
p144
F0.2843523424036335
sS'801187'
p145
F0.32114015605685198
sS'2998173'
p146
F0.46739595095058473
sS'1042957'
p147
F0.44487075994050251
sS'907569'
p148
F0.37138977181612931
sS'2866181'
p149
F0.30026202733767954
sS'1014794'
p150
F0.031527093596059111
sS'918302'
p151
F0.84905897337877689
sS'1023252'
p152
F0.82243095257635224
sS'871766'
p153
F0.25678102996847924
sS'1022869'
p154
F0.67065235641429621
sS'1046227'
p155
F0.27585814159632638
sS'499381'
p156
F0.36794497078901373
sS'2998182'
p157
F0.17872154423856265
sS'2867377'
p158
F0.22893832017102236
sS'1141582'
p159
F0.17368076715933195
ssS'0.01'
p160
(dp161
S'1041452'
p162
F0.32089972578564846
sS'831732'
p163
F0.32209430692968372
sS'1027785'
p164
F0.55519949591307316
sS'835602'
p165
F0.55588654106617075
sS'857704'
p166
F0.43015566237399488
sS'861010'
p167
F0.37375125461060682
sS'907669'
p168
F0.26790271109395786
sS'1042555'
p169
F0.25108696754456494
sS'860795'
p170
F0.44812763725629345
sS'995660'
p171
F0.18533058112818829
sS'796576'
p172
F0.2571300381400663
sS'907663'
p173
F0.49448894533485116
sS'1045138'
p174
F0.47990043499476998
sS'907881'
p175
F0.23395373757608121
sS'857669'
p176
F0.22444413048365897
sS'907609'
p177
F0.22093368193165591
sS'1023663'
p178
F0.23724632786293892
sS'1280018'
p179
F0.75535877794689521
sS'857701'
p180
F0.4317195210619752
sS'880978'
p181
F0.48837940597050739
sS'985045'
p182
F0.42193062319982977
sS'1270712'
p183
F0.46468769598907128
sS'570347'
p184
F0.11282051282051282
sS'1111869'
p185
F0.29938955722959248
sS'1343315'
p186
F0.037101624117891245
sS'1027807'
p187
F0.70586666704714007
sS'2850836'
p188
F0.064929480564155484
sS'1343340'
p189
F0.06175865591945779
sS'1010043'
p190
F0.42370541349470858
sS'499010'
p191
F0.35759956699779943
sS'797271'
p192
F0.23411871990937233
sS'636918'
p193
F0.10863558182443633
sS'1042538'
p194
F0.57516470077204696
sS'985077'
p195
F0.42073023139043864
sS'907796'
p196
F0.27717132966047558
sS'801187'
p197
F0.33328132368985069
sS'2998173'
p198
F0.4930411475443533
sS'1042957'
p199
F0.47932024572006648
sS'907569'
p200
F0.51856427491203338
sS'2866181'
p201
F0.28093915524215846
sS'1014794'
p202
F0.031527093596059111
sS'918302'
p203
F0.82550659432326667
sS'1023252'
p204
F0.87827270804739022
sS'871766'
p205
F0.26685291383516641
sS'1022869'
p206
F0.68386543578153003
sS'1046227'
p207
F0.24401460077499162
sS'499381'
p208
F0.4457612108278835
sS'2998182'
p209
F0.17869228178062144
sS'2867377'
p210
F0.31419707609529324
sS'1141582'
p211
F0.20916818625392858
ssS'0.5'
p212
(dp213
S'1041452'
p214
F0.18616703452852681
sS'831732'
p215
F0.38738932664807141
sS'1027785'
p216
F0.63930630143475931
sS'835602'
p217
F0.36825412095063886
sS'857704'
p218
F0.38680004999357703
sS'861010'
p219
F0.42458674904305238
sS'907669'
p220
F0.23818750917639772
sS'1042555'
p221
F0.19438547504803505
sS'860795'
p222
F0.30666400670922395
sS'995660'
p223
F0.14041936184793324
sS'796576'
p224
F0.18430771497020834
sS'907663'
p225
F0.34344907293036225
sS'1045138'
p226
F0.23302882515456991
sS'907881'
p227
F0.24162520483269204
sS'857669'
p228
F0.12912712622857547
sS'907609'
p229
F0.31943976500881982
sS'1023663'
p230
F0.18683277889331604
sS'1280018'
p231
F0.84637778047357604
sS'857701'
p232
F0.34657462580572246
sS'880978'
p233
F0.46858444886536188
sS'985045'
p234
F0.44552212951865094
sS'1270712'
p235
F0.45612006752153517
sS'570347'
p236
F0.0826645264847512
sS'1111869'
p237
F0.26543235936992399
sS'1343315'
p238
F0.01
sS'1027807'
p239
F0.67227318525768265
sS'2850836'
p240
F0.064929480564155484
sS'1343340'
p241
F0.010526315789473684
sS'1010043'
p242
F0.38699149845602626
sS'499010'
p243
F0.26311419222870064
sS'797271'
p244
F0.26005140261499399
sS'636918'
p245
F0.14597739658715267
sS'1042538'
p246
F0.39786785308921629
sS'985077'
p247
F0.35421249116469095
sS'907796'
p248
F0.27529976023028518
sS'801187'
p249
F0.23267160593240965
sS'2998173'
p250
F0.44786369419987976
sS'1042957'
p251
F0.42649527777325097
sS'907569'
p252
F0.28466340075317892
sS'2866181'
p253
F0.33884932944790308
sS'1014794'
p254
F0.031527093596059111
sS'918302'
p255
F0.88173330311133347
sS'1023252'
p256
F0.80909871697967395
sS'871766'
p257
F0.23445790312061313
sS'1022869'
p258
F0.69260216809419639
sS'1046227'
p259
F0.26931103768661463
sS'499381'
p260
F0.3190484559998687
sS'2998182'
p261
F0.22992841157454255
sS'2867377'
p262
F0.22907847647053067
sS'1141582'
p263
F0.1683535762483131
ssS'0.7'
p264
(dp265
S'1041452'
p266
F0.17366652345583947
sS'831732'
p267
F0.40386387594513384
sS'1027785'
p268
F0.70424429523132148
sS'835602'
p269
F0.34208586598138735
sS'857704'
p270
F0.16035317359131426
sS'861010'
p271
F0.41326897968168719
sS'907669'
p272
F0.2308501144755768
sS'1042555'
p273
F0.20383795853723194
sS'860795'
p274
F0.25737063094886814
sS'995660'
p275
F0.11965877632679084
sS'796576'
p276
F0.12350353081974798
sS'907663'
p277
F0.320283548506615
sS'1045138'
p278
F0.2232666108292268
sS'907881'
p279
F0.25537580739101706
sS'857669'
p280
F0.10593272737925735
sS'907609'
p281
F0.33300074956097542
sS'1023663'
p282
F0.16049730724208428
sS'1280018'
p283
F0.8903049297272424
sS'857701'
p284
F0.25678420972608784
sS'880978'
p285
F0.44590449915295033
sS'985045'
p286
F0.43871059670014856
sS'1270712'
p287
F0.45280985604843976
sS'570347'
p288
F0.051870748299319723
sS'1111869'
p289
F0.22420915435617439
sS'1343315'
p290
I0
sS'1027807'
p291
F0.67718839381070373
sS'2850836'
p292
F0.051213893319156469
sS'1343340'
p293
I0
sS'1010043'
p294
F0.36549920096605887
sS'499010'
p295
F0.25567831683665154
sS'797271'
p296
F0.28220922190932185
sS'636918'
p297
F0.16444899817850636
sS'1042538'
p298
F0.38353138257270469
sS'985077'
p299
F0.38339518696006819
sS'907796'
p300
F0.29518132257215179
sS'801187'
p301
F0.13946797737096805
sS'2998173'
p302
F0.44747454683979621
sS'1042957'
p303
F0.43211473557165347
sS'907569'
p304
F0.23363906929229933
sS'2866181'
p305
F0.37727764881555853
sS'1014794'
p306
F0.028039215686274509
sS'918302'
p307
F0.86305268982950367
sS'1023252'
p308
F0.77948352802336363
sS'871766'
p309
F0.20421601352345858
sS'1022869'
p310
F0.66847043700621589
sS'1046227'
p311
F0.26680492806931833
sS'499381'
p312
F0.29189644725252989
sS'2998182'
p313
F0.30294160436234085
sS'2867377'
p314
F0.23006331630787588
sS'1141582'
p315
F0.19209112959112959
ssS'0.05'
p316
(dp317
S'1041452'
p318
F0.31966819869205243
sS'831732'
p319
F0.32209430692968372
sS'1027785'
p320
F0.55519949591307316
sS'835602'
p321
F0.5547827613333588
sS'857704'
p322
F0.43015566237399488
sS'861010'
p323
F0.37375125461060682
sS'907669'
p324
F0.26859313074641705
sS'1042555'
p325
F0.25183066828826567
sS'860795'
p326
F0.44800445420628116
sS'995660'
p327
F0.18533058112818829
sS'796576'
p328
F0.2571300381400663
sS'907663'
p329
F0.49028406349112402
sS'1045138'
p330
F0.47923598316752752
sS'907881'
p331
F0.23389399304553413
sS'857669'
p332
F0.22444413048365897
sS'907609'
p333
F0.22160203121622812
sS'1023663'
p334
F0.23746150455827994
sS'1280018'
p335
F0.75535877794689521
sS'857701'
p336
F0.4317195210619752
sS'880978'
p337
F0.48837940597050739
sS'985045'
p338
F0.42175341249630327
sS'1270712'
p339
F0.46458494852753224
sS'570347'
p340
F0.11282051282051282
sS'1111869'
p341
F0.29938955722959248
sS'1343315'
p342
F0.037101624117891245
sS'1027807'
p343
F0.70586666704714007
sS'2850836'
p344
F0.064929480564155484
sS'1343340'
p345
F0.06175865591945779
sS'1010043'
p346
F0.42278907836784713
sS'499010'
p347
F0.35747945624926974
sS'797271'
p348
F0.23397983102048348
sS'636918'
p349
F0.10863558182443633
sS'1042538'
p350
F0.57516470077204696
sS'985077'
p351
F0.41572972274350839
sS'907796'
p352
F0.27779254266798742
sS'801187'
p353
F0.33342717584281667
sS'2998173'
p354
F0.47675626121843351
sS'1042957'
p355
F0.47822579996834386
sS'907569'
p356
F0.51526976240699451
sS'2866181'
p357
F0.27980730098530421
sS'1014794'
p358
F0.031527093596059111
sS'918302'
p359
F0.82473277458232208
sS'1023252'
p360
F0.87827270804739022
sS'871766'
p361
F0.26445781006423985
sS'1022869'
p362
F0.67364863148326759
sS'1046227'
p363
F0.24401460077499162
sS'499381'
p364
F0.44769800254241715
sS'2998182'
p365
F0.17869228178062144
sS'2867377'
p366
F0.31378981236734027
sS'1141582'
p367
F0.20916818625392858
ssS'traditional'
p368
(dp369
S'1041452'
p370
F0.31489901685129129
sS'831732'
p371
F0.26571700309179608
sS'1027785'
p372
F0.50502163556783319
sS'835602'
p373
F0.51068555651520642
sS'857704'
p374
F0.37394708357036111
sS'861010'
p375
F0.42099988118560722
sS'907669'
p376
F0.30523577118792433
sS'1042555'
p377
F0.25636607427583658
sS'860795'
p378
F0.50618510937138383
sS'995660'
p379
F0.1762381954895324
sS'796576'
p380
F0.28737516881193542
sS'907663'
p381
F0.47573426600110713
sS'1045138'
p382
F0.53149586370992208
sS'907881'
p383
F0.22910908592711926
sS'857669'
p384
F0.21410643446848701
sS'907609'
p385
F0.19006930688064808
sS'1023663'
p386
F0.28231450459107699
sS'1280018'
p387
F0.69822776946388032
sS'857701'
p388
F0.32149820394532769
sS'880978'
p389
F0.58456429925970155
sS'985045'
p390
F0.4929021549206582
sS'1270712'
p391
F0.40763820280752489
sS'570347'
p392
F0.11449275362318841
sS'1111869'
p393
F0.23834081005374075
sS'1343315'
p394
F0.061313395671696413
sS'1027807'
p395
F0.74765023053715907
sS'2850836'
p396
F0.10648148148148147
sS'1343340'
p397
F0.070692631044316709
sS'1010043'
p398
F0.51768245492133369
sS'499010'
p399
F0.34603265568960268
sS'797271'
p400
F0.15753494496733469
sS'636918'
p401
F0.35615763546798029
sS'1042538'
p402
F0.46413646853030777
sS'985077'
p403
F0.37864142205261708
sS'907796'
p404
F0.25952443719160034
sS'801187'
p405
F0.39978627385885201
sS'2998173'
p406
F0.49258292928565339
sS'1042957'
p407
F0.4606180725224685
sS'907569'
p408
F0.47403886792535938
sS'2866181'
p409
F0.42122708826657257
sS'1014794'
p410
F0.039015151515151517
sS'918302'
p411
F0.76901140454098926
sS'1023252'
p412
F0.87918315797521596
sS'871766'
p413
F0.23825044328581421
sS'1022869'
p414
F0.64860830301903882
sS'1046227'
p415
F0.22590481660996423
sS'499381'
p416
F0.39264337307103403
sS'2998182'
p417
F0.2213242858605626
sS'2867377'
p418
F0.28206152662263795
sS'1141582'
p419
F0.30578869672716502
ssS'0.99'
p420
(dp421
S'1041452'
p422
F0.17148482380680957
sS'831732'
p423
F0.38182356806449452
sS'1027785'
p424
F0.69647054133202724
sS'835602'
p425
F0.33418547603488169
sS'857704'
p426
F0.040561290561290556
sS'861010'
p427
F0.37784110125690429
sS'907669'
p428
F0.22690005631204774
sS'1042555'
p429
F0.21675052836177019
sS'860795'
p430
F0.2030960345410931
sS'995660'
p431
F0.084598825832763652
sS'796576'
p432
F0.084677756378787314
sS'907663'
p433
F0.31963254269522967
sS'1045138'
p434
F0.23312062399325428
sS'907881'
p435
F0.25861579618944308
sS'857669'
p436
F0.093375406076958559
sS'907609'
p437
F0.34242169858180571
sS'1023663'
p438
F0.16314615542300864
sS'1280018'
p439
F0.89795135699759687
sS'857701'
p440
F0.23992415552058072
sS'880978'
p441
F0.45804515587272171
sS'985045'
p442
F0.43825377958936484
sS'1270712'
p443
F0.42066396612925205
sS'570347'
p444
F0.043537414965986392
sS'1111869'
p445
F0.19519771964258836
sS'1343315'
p446
I0
sS'1027807'
p447
F0.67718839381070373
sS'2850836'
p448
F0.049600053774282449
sS'1343340'
p449
I0
sS'1010043'
p450
F0.35151904057718175
sS'499010'
p451
F0.24210860704365952
sS'797271'
p452
F0.29891058571147211
sS'636918'
p453
F0.17293956043956044
sS'1042538'
p454
F0.34905656332173335
sS'985077'
p455
F0.40516153724065135
sS'907796'
p456
F0.29486188704781635
sS'801187'
p457
F0.10798564735748183
sS'2998173'
p458
F0.43913345531810932
sS'1042957'
p459
F0.42441403888074974
sS'907569'
p460
F0.21281101547776332
sS'2866181'
p461
F0.37598619263759886
sS'1014794'
p462
F0.025816122584943368
sS'918302'
p463
F0.85760545067266925
sS'1023252'
p464
F0.74994911742357218
sS'871766'
p465
F0.18344684106949616
sS'1022869'
p466
F0.65254082210307329
sS'1046227'
p467
F0.25400521030647283
sS'499381'
p468
F0.27299571087737229
sS'2998182'
p469
F0.32645879482278417
sS'2867377'
p470
F0.22942265727137859
sS'1141582'
p471
F0.17780112044817928
sssS'SR'
p472
(dp473
S'0.9'
p474
(dp475
g6
F0.79061868265671109
sg7
F0.78885466095916357
sg8
F0.78302436806769138
sg9
F0.85768586365390709
sg10
F0.79349023539438568
sg11
F0.80434416213804771
sg12
F0.79795420083046487
sg13
F0.9881415198053729
sg14
F0.91601911610920561
sg15
I0
sg16
F0.11638361638361638
sg17
F0.80398841046062752
sg18
F0.84478257217368813
sg19
F0.90336818358682636
sg20
F0.78641027787917195
sg21
F0.9112196577648134
sg22
F0.79277598482379918
sg23
F0.79397311896281986
sg24
F0.73929386100765759
sg25
F1
sg26
F0.93890281615581916
sg27
F0.86726970379355439
sg28
F0.15464418723896609
sg29
F0.043859649122807015
sg30
F0.087135063441033611
sg31
F0.78973936346056628
sg32
F0.26970105283492701
sg33
F0.096766585422047607
sg34
F0.80913318868837769
sg35
F0.81318510390677745
sg36
F0.80441897599792189
sg37
I0
sg38
F0.71013316691858086
sg39
F0.85069655890529539
sg40
F0.83250285451086692
sg41
F0.027655950306649746
sg42
F0.055116629945397067
sg43
F0.78882935957113498
sg44
F0.7988552234948233
sg45
F0.95536547923431214
sg46
F0.84464136325577377
sg47
F0.78900936924808973
sg48
F0.78775915005953867
sg49
F0.86562421982532944
sg50
F0.78877875344846515
sg51
F0.78885466095916357
sg52
F0.79668151993845349
sg53
F0.12719025541839007
sg54
F0.93495017923244705
sg55
F0.92230518347825885
ssS'0.1'
p476
(dp477
g58
F0.93700241789606831
sg59
F0.82919288571184813
sg60
F0.95794746914688567
sg61
F0.80390410718231253
sg62
F0.9639627960048518
sg63
F0.99492980651077723
sg64
F0.91516038726693427
sg65
F0.85645680970706606
sg66
F0.88630178289596206
sg67
F0.9177283258203397
sg68
F0.21857142857142856
sg69
F0.89288623236350106
sg70
F0.96768772738026942
sg71
F0.88621782350996092
sg72
F0.54427782569225513
sg73
F0.92224140461301052
sg74
F0.89299680021086658
sg75
F0.96609165416251797
sg76
F0.71315066701624841
sg77
F1
sg78
F0.98037445664556611
sg79
F0.844863460785513
sg80
F0.20550977592439984
sg81
F0.79868964842566359
sg82
F0.20392701313303077
sg83
F0.99608961002235252
sg84
F0.22215289372951266
sg85
F0.1292671376542163
sg86
F0.97168518594009967
sg87
F0.99397381137619112
sg88
F0.95817449169419866
sg89
F0.19558781483814872
sg90
F0.57597997466085749
sg91
F0.84691156940954937
sg92
F0.95119786043611887
sg93
F0.68647864843258211
sg94
F0.77394805299312419
sg95
F0.92993701234678661
sg96
F0.93113024718947801
sg97
F0.98280087183265252
sg98
F0.86565343279566087
sg99
F0.99429529267313477
sg100
F0.99948457858619866
sg101
F0.83313309516667122
sg102
F0.95528517693813164
sg103
F0.38331908238766149
sg104
F1
sg105
F0.49185163057712078
sg106
F0.7933162130604835
sg107
F0.89876022307583558
ssS'0.3'
p478
(dp479
g110
F0.84769213307279634
sg111
F0.77424200202598603
sg112
F0.750043948168992
sg113
F0.9288581477828628
sg114
F0.93840228035485296
sg115
F0.99871561635395545
sg116
F0.90358337399239519
sg117
F0.90868244196979109
sg118
F0.86216369295729911
sg119
F0.37177634891338968
sg120
F0.21857142857142856
sg121
F0.87267750817206835
sg122
F0.97810605886098656
sg123
F0.93989950278608903
sg124
F0.65119382840046169
sg125
F0.93480221842569733
sg126
F0.75705633556901519
sg127
F0.7737119844428515
sg128
F0.71354091232181671
sg129
F1
sg130
F0.98111971187463953
sg131
F0.844863460785513
sg132
F0.1981017287486192
sg133
F0.82693079624194177
sg134
F0.21825396825396823
sg135
F0.76998951637260671
sg136
F0.17187188281853444
sg137
F0.084351480761276118
sg138
F0.97572367179871178
sg139
F0.97657904266745554
sg140
F0.98450897839587848
sg141
F0.12899477789183672
sg142
F0.54512580460527804
sg143
F0.88272693940665736
sg144
F0.9497030676517505
sg145
F0.37636702129565602
sg146
F0.17932950191570882
sg147
F0.76605784502715002
sg148
F0.8555215223150463
sg149
F0.97623725419383411
sg150
F0.85813944546809262
sg151
F0.79991805461196119
sg152
F0.83738433766894749
sg153
F0.8654660337564879
sg154
F0.76262501633382351
sg155
F0.62438032481869343
sg156
F0.99378104327009076
sg157
F0.15074954681747826
sg158
F0.83383677544042112
sg159
F0.91678334595318001
ssS'0.01'
p480
(dp481
g162
F0.9362102941743653
sg163
F0.83021304657028028
sg164
F0.98349649155599572
sg165
F0.79738734922418575
sg166
F0.96058601467289251
sg167
F0.99479452512549582
sg168
F0.90684632887887173
sg169
F0.85549798709674152
sg170
F0.88699180427040003
sg171
F0.91965031177416712
sg172
F0.21857142857142856
sg173
F0.89876704545574104
sg174
F0.95885797508170145
sg175
F0.87472911024052635
sg176
F0.54458695835432902
sg177
F0.92224140461301052
sg178
F0.87523477758289159
sg179
F0.98707170841178149
sg180
F0.71354091232181671
sg181
F1
sg182
F0.97639339856496354
sg183
F0.844863460785513
sg184
F0.20523106912395389
sg185
F0.97427626061827399
sg186
F0.20581444981093208
sg187
F0.99612808860696489
sg188
F0.25401471291311251
sg189
F0.14817873232113268
sg190
F0.96868198029772301
sg191
F0.99395186258566781
sg192
F0.95817449169419866
sg193
F0.19558781483814872
sg194
F0.59245664673207454
sg195
F0.85023830299064584
sg196
F0.94320197898216518
sg197
F0.68647864843258211
sg198
F0.77224445756132154
sg199
F0.93566014529695762
sg200
F0.93144813742991439
sg201
F0.98044207990088961
sg202
F0.86565343279566087
sg203
F1
sg204
F1
sg205
F0.83313309516667122
sg206
F0.95569706539011268
sg207
F0.3692167393968584
sg208
F1
sg209
F0.53619330285996958
sg210
F0.78968623614046318
sg211
F0.89722452027733035
ssS'0.5'
p482
(dp483
g214
F0.75917802930751088
sg215
F0.75319708445871658
sg216
F0.75045026480866706
sg217
F0.90680993167997037
sg218
F0.81321671444119636
sg219
F0.92788790452957814
sg220
F0.80217379177824055
sg221
F0.98555829298287423
sg222
F0.86734475478626571
sg223
F0.0625
sg224
F0.16809116809116809
sg225
F0.84300407831548163
sg226
F0.94433788547447783
sg227
F0.9361436936150147
sg228
F0.71607250538504585
sg229
F0.92214488423689478
sg230
F0.76088035747713512
sg231
F0.76045121739150878
sg232
F0.69736052330456277
sg233
F1
sg234
F0.97494280594442506
sg235
F0.85048314129926206
sg236
F0.17448091729512549
sg237
F0.68466253886043993
sg238
F0.064973318258285825
sg239
F0.75739562870096688
sg240
F0.20099244145125153
sg241
F0.060479695742853633
sg242
F0.88939078171213892
sg243
F0.97525643508084903
sg244
F0.97514369041018978
sg245
I0
sg246
F0.62137931273288416
sg247
F0.85951369944573641
sg248
F0.87732224941702242
sg249
F0.14827802631216114
sg250
F0.10585470638102217
sg251
F0.75820315677129113
sg252
F0.78975914589739515
sg253
F0.97421014859704291
sg254
F0.86977224995162872
sg255
F0.75689596033377693
sg256
F0.77382852425113879
sg257
F0.8826501046170615
sg258
F0.7573359177853537
sg259
F0.75039451601192408
sg260
F0.91939683773415337
sg261
F0.14760531301147548
sg262
F0.87619657787841376
sg263
F0.92681262183752966
ssS'0.7'
p484
(dp485
g266
F0.77655601112049055
sg267
F0.76725558578208686
sg268
F0.76123516140347613
sg269
F0.8764208044991576
sg270
F0.79224562425453349
sg271
F0.8251895623412886
sg272
F0.79166982691415255
sg273
F0.98869194730111254
sg274
F0.89013991096311307
sg275
I0
sg276
F0.12307692307692308
sg277
F0.81664028451257631
sg278
F0.8863216033693041
sg279
F0.91706997630927256
sg280
F0.76518425910089549
sg281
F0.91277437833711439
sg282
F0.78065760544511509
sg283
F0.77488824701934256
sg284
F0.73576146049304814
sg285
F1
sg286
F0.95759453167648445
sg287
F0.87191624937526591
sg288
F0.16260010208162587
sg289
F0.14777315145765771
sg290
F0.077981371465414021
sg291
F0.76994845076743601
sg292
F0.24424027835905188
sg293
F0.10722912902419032
sg294
F0.82853817750978742
sg295
F0.93185942243783559
sg296
F0.83922061736921327
sg297
I0
sg298
F0.68609048671064199
sg299
F0.85298906805384
sg300
F0.8452804272760045
sg301
F0.063955913916167631
sg302
F0.068669579351738272
sg303
F0.76928439972235596
sg304
F0.79449062871707898
sg305
F0.96439750946896374
sg306
F0.8612714889259212
sg307
F0.76746289177424876
sg308
F0.7792675746245441
sg309
F0.86900851918128097
sg310
F0.77003933026982907
sg311
F0.76725558578208686
sg312
F0.85071275275159475
sg313
F0.1377761319581596
sg314
F0.89640072440365359
sg315
F0.92341420703353994
ssS'0.05'
p486
(dp487
g318
F0.93643325961472212
sg319
F0.83021304657028028
sg320
F0.98370265271657065
sg321
F0.79776469326835497
sg322
F0.96151499593348211
sg323
F0.99479452512549582
sg324
F0.90707216447056094
sg325
F0.85549798709674152
sg326
F0.88735757671367876
sg327
F0.91965031177416712
sg328
F0.21857142857142856
sg329
F0.89973293556171219
sg330
F0.96055865535381024
sg331
F0.87502299738786182
sg332
F0.54427782569225513
sg333
F0.92246938051270111
sg334
F0.88098243178796654
sg335
F0.98874214025326657
sg336
F0.71354091232181671
sg337
F1
sg338
F0.97582000003342317
sg339
F0.844863460785513
sg340
F0.20523106912395389
sg341
F0.9675617493090074
sg342
F0.20581444981093208
sg343
F0.99612808860696489
sg344
F0.25090995992105397
sg345
F0.14817873232113268
sg346
F0.96920332889286442
sg347
F0.99407626419816464
sg348
F0.95817449169419866
sg349
F0.19614522843904056
sg350
F0.59245664673207454
sg351
F0.85023830299064584
sg352
F0.94538860381212042
sg353
F0.68522713475728791
sg354
F0.7884207673314727
sg355
F0.93265168854850045
sg356
F0.93154135791367343
sg357
F0.98178884219954254
sg358
F0.86565343279566087
sg359
F1
sg360
F1
sg361
F0.83313309516667122
sg362
F0.95547810308021541
sg363
F0.36916400354587753
sg364
F1
sg365
F0.53356970514865254
sg366
F0.78716670298656866
sg367
F0.89643224139516386
ssg368
(dp488
g370
F0.94101435679787693
sg371
F0.79466171805612984
sg372
F0.98366346177370911
sg373
F0.74438096594511793
sg374
F0.94249505226056629
sg375
F1
sg376
F0.8315596396597339
sg377
F0.84946256408234644
sg378
F0.88235968783722507
sg379
F0.89333826900987701
sg380
F0.88749999999999996
sg381
F0.91183029201980681
sg382
F0.94094217861684526
sg383
F0.84914117990092397
sg384
F0.44145801759699355
sg385
F0.93017941891600731
sg386
F0.81657518121836659
sg387
F1
sg388
F0.72193764152230733
sg389
F1
sg390
F0.97430190811906148
sg391
F0.79195695558379509
sg392
F0.22776022136916035
sg393
F1
sg394
F0.24694446983163218
sg395
F0.96820677139994515
sg396
F0.25687368187368187
sg397
F0.16478719403115422
sg398
F0.96632525172898054
sg399
F1
sg400
F0.95716126898951237
sg401
F0.19080444334911245
sg402
F0.43360270555514974
sg403
F0.92589802631004503
sg404
F0.93438416503925259
sg405
F0.79285601044599574
sg406
F0.67216807076536611
sg407
F0.89489151859600269
sg408
F0.91278354416543439
sg409
F0.9867350933155129
sg410
F0.87653967483821993
sg411
F1
sg412
F1
sg413
F0.83527600086093934
sg414
F0.9383761865063287
sg415
F0.44427831998938627
sg416
F0.99455366405092405
sg417
F0.74735449735449744
sg418
F0.78637205124699838
sg419
F0.90998198174603784
ssS'0.99'
p489
(dp490
g422
F0.79167889162789284
sg423
F0.78875713492741795
sg424
F0.78460566046463665
sg425
F0.85043649446623293
sg426
F0.79599004080854685
sg427
F0.80161708471285298
sg428
F0.79855519112631457
sg429
F0.98852016334369797
sg430
F0.92641609810998615
sg431
I0
sg432
F0.11638361638361638
sg433
F0.80221515619815453
sg434
F0.8343485583522664
sg435
F0.90093181579972847
sg436
F0.78641027787917195
sg437
F0.91108885821880503
sg438
F0.79387721067667649
sg439
F0.79274848475498461
sg440
F0.73929386100765759
sg441
F1
sg442
F0.93253810957309657
sg443
F0.86726970379355439
sg444
F0.15464418723896609
sg445
F0.026315789473684209
sg446
F0.086994208279221732
sg447
F0.78975861523473911
sg448
F0.27173231164161399
sg449
F0.087389659786193105
sg450
F0.8085237990245856
sg451
F0.74221131432750753
sg452
F0.80117842891595514
sg453
I0
sg454
F0.71681283908261051
sg455
F0.85086179338667234
sg456
F0.83092416143472136
sg457
F0.027350651995179297
sg458
F0.053240527483551833
sg459
F0.78961230052306797
sg460
F0.79827915612296929
sg461
F0.95309963730013114
sg462
F0.84464136325577377
sg463
F0.78875713492741795
sg464
F0.79034009087911827
sg465
F0.86562421982532944
sg466
F0.79234283926953653
sg467
F0.78875713492741795
sg468
F0.72423506842236007
sg469
F0.12578282280030001
sg470
F0.94789106228060582
sg471
F0.92228813694278589
sssS'merged'
p491
(dp492
s.