(dp1
S'CC'
p2
(dp3
S'0.9'
p4
(dp5
S'1041452'
p6
(lp7
I0
aI0
aI0
aI0
aI0
aI0
aI0
aI0
aI0
aI0
asS'831732'
p8
(lp9
I0
aI0
aI0
aI0
aI0
aI0
aI0
aI0
aI0
aI0
asS'1027785'
p10
(lp11
I0
aI0
aI0
aI0
aI0
aI0
aI0
aI0
aI0
aI0
asS'835602'
p12
(lp13
I0
aF0.010101010101010102
aF0.010101010101010102
aI0
aI0
aF0.010101010101010102
aI0
aI0
aI0
aI0
asS'857704'
p14
(lp15
I0
aI0
aI0
aI0
aI0
aI0
aI0
aI0
aI0
aI0
asS'861010'
p16
(lp17
I0
aI0
aI0
aI0
aI0
aI0
aI0
aI0
aI0
aI0
asS'907669'
p18
(lp19
I0
aI0
aI0
aI0
aI0
aI0
aI0
aI0
aI0
aI0
asS'1042555'
p20
(lp21
I0
aI0
aI0
aI0
aI0
aI0
aI0
aI0
aI0
aI0
asS'860795'
p22
(lp23
I0
aI0
aI0
aI0
aI0
aI0
aI0
aI0
aI0
aI0
asS'995660'
p24
(lp25
I0
aI0
aI0
aI0
aI0
aI0
aI0
aI0
aI0
aI0
asS'796576'
p26
(lp27
I0
aI0
aI0
aI0
aI0
aI0
aI0
aI0
aI0
aI0
asS'907663'
p28
(lp29
I0
aI0
aI0
aI0
aI0
aI0
aI0
aI0
aI0
aI0
asS'1045138'
p30
(lp31
I0
aI0
aI0
aI0
aI0
aI0
aI0
aI0
aI0
aI0
asS'907881'
p32
(lp33
I0
aI0
aI0
aI0
aI0
aI0
aI0
aI0
aI0
aI0
asS'857669'
p34
(lp35
I0
aI0
aI0
aI0
aI0
aI0
aI0
aI0
aI0
aI0
asS'907609'
p36
(lp37
I0
aI0
aI0
aI0
aI0
aI0
aI0
aI0
aI0
aI0
asS'1023663'
p38
(lp39
I0
aI0
aI0
aI0
aI0
aI0
aI0
aI0
aI0
aI0
asS'1280018'
p40
(lp41
I0
aI0
aI0
aI0
aI0
aI0
aI0
aI0
aI0
aI0
asS'857701'
p42
(lp43
I0
aI0
aI0
aI0
aI0
aI0
aI0
aI0
aI0
aI0
asS'880978'
p44
(lp45
I0
aI0
aI0
aI0
aI0
aI0
aI0
aI0
aI0
aI0
asS'985045'
p46
(lp47
I0
aI0
aI0
aI0
aI0
aI0
aI0
aI0
aI0
aI0
asS'1270712'
p48
(lp49
I0
aI0
aI0
aI0
aI0
aI0
aI0
aI0
aI0
aI0
asS'570347'
p50
(lp51
I0
aI0
aI0
aI0
aI0
aI0
aI0
aI0
aI0
aI0
asS'1111869'
p52
(lp53
I0
aI0
aI0
aI0
aI0
aI0
aI0
aI0
aI0
aI0
asS'1343315'
p54
(lp55
I0
aI0
aI0
aI0
aI0
aI0
aI0
aI0
aI0
aI0
asS'1027807'
p56
(lp57
I0
aI0
aI0
aI0
aI0
aI0
aI0
aI0
aI0
aI0
asS'2850836'
p58
(lp59
I0
aI0
aI0
aI0
aI0
aI0
aI0
aI0
aI0
aI0
asS'1343340'
p60
(lp61
F0.016949152542372881
aF0.045454545454545456
aF0.14285714285714285
aF0.017241379310344827
aI0
aI0
aF0.017241379310344827
aI0
aF0.028312788906009245
aI0
asS'1010043'
p62
(lp63
I0
aI0
aI0
aI0
aI0
aI0
aI0
aI0
aI0
aI0
asS'499010'
p64
(lp65
I0
aI0
aI0
aI0
aI0
aI0
aI0
aI0
aI0
aI0
asS'797271'
p66
(lp67
I0
aI0
aI0
aI0
aI0
aI0
aI0
aI0
aI0
aI0
asS'636918'
p68
(lp69
I0
aI0
aI0
aI0
aI0
aI0
aI0
aI0
aI0
aI0
asS'1042538'
p70
(lp71
I0
aI0
aI0
aI0
aI0
aI0
aI0
aI0
aI0
aI0
asS'985077'
p72
(lp73
I0
aI0
aI0
aI0
aI0
aI0
aI0
aI0
aI0
aI0
asS'907796'
p74
(lp75
I0
aI0
aI0
aI0
aI0
aI0
aI0
aI0
aI0
aI0
asS'801187'
p76
(lp77
I0
aI0
aI0
aI0
aI0
aI0
aI0
aI0
aI0
aI0
asS'2998173'
p78
(lp79
I0
aI0
aI0
aI0
aI0
aI0
aI0
aI0
aI0
aI0
asS'1042957'
p80
(lp81
I0
aI0
aI0
aI0
aI0
aI0
aI0
aI0
aI0
aI0
asS'907569'
p82
(lp83
I0
aI0
aI0
aI0
aI0
aI0
aI0
aI0
aI0
aI0
asS'2866181'
p84
(lp85
I0
aI0
aI0
aI0
aI0
aI0
aI0
aI0
aI0
aI0
asS'1014794'
p86
(lp87
I0
aI0
aI0
aI0
aI0
aI0
aI0
aI0
aI0
aI0
asS'918302'
p88
(lp89
I0
aI0
aI0
aI0
aI0
aI0
aI0
aI0
aI0
aI0
asS'1023252'
p90
(lp91
I0
aI0
aF0.076923076923076927
aI0
aF0.090909090909090912
aF0.076923076923076927
aF0.076923076923076927
aF0.076923076923076927
aI0
aI0
asS'871766'
p92
(lp93
I0
aI0
aI0
aI0
aI0
aI0
aI0
aI0
aI0
aI0
asS'1022869'
p94
(lp95
I0
aI0
aI0
aI0
aI0
aI0
aI0
aI0
aI0
aI0
asS'1046227'
p96
(lp97
I0
aI0
aI0
aI0
aI0
aI0
aI0
aI0
aI0
aI0
asS'499381'
p98
(lp99
I0
aI0
aI0
aI0
aI0
aI0
aI0
aI0
aI0
aI0
asS'2998182'
p100
(lp101
I0
aI0
aI0
aI0
aI0
aI0
aI0
aI0
aI0
aI0
asS'2867377'
p102
(lp103
F0.035714285714285712
aF0.035714285714285712
aF0.033333333333333333
aF0.077667140825035563
aI0
aF0.057142857142857141
aF0.076315789473684212
aF0.047619047619047616
aF0.10000000000000001
aI0
asS'1141582'
p104
(lp105
I0
aI0
aI0
aI0
aI0
aI0
aI0
aI0
aI0
aI0
assS'0.1'
p106
(dp107
g6
(lp108
I0
aI0
aI0
aI0
aI0
aI0
aI0
aI0
aI0
aI0
asg8
(lp109
I0
aI0
aI0
aI0
aI0
aI0
aI0
aI0
aI0
aI0
asg10
(lp110
I0
aI0
aI0
aI0
aI0
aI0
aI0
aI0
aI0
aI0
asg12
(lp111
I0
aI0
aI0
aI0
aI0
aI0
aF0.018867924528301886
aI0
aI0
aI0
asg14
(lp112
I0
aI0
aI0
aI0
aI0
aI0
aI0
aI0
aI0
aI0
asg16
(lp113
I0
aI0
aI0
aI0
aI0
aI0
aI0
aI0
aI0
aI0
asg18
(lp114
I0
aI0
aI0
aI0
aI0
aI0
aI0
aI0
aI0
aI0
asg20
(lp115
I0
aI0
aI0
aI0
aI0
aI0
aI0
aI0
aI0
aI0
asg22
(lp116
I0
aI0
aI0
aI0
aI0
aI0
aI0
aI0
aI0
aI0
asg24
(lp117
I0
aI0
aI0
aI0
aI0
aI0
aI0
aI0
aI0
aI0
asg26
(lp118
I0
aI0
aI0
aI0
aI0
aI0
aI0
aI0
aI0
aI0
asg28
(lp119
I0
aI0
aI0
aI0
aI0
aI0
aI0
aI0
aI0
aI0
asg30
(lp120
I0
aI0
aI0
aI0
aI0
aI0
aI0
aI0
aI0
aI0
asg32
(lp121
I0
aI0
aI0
aI0
aI0
aI0
aI0
aI0
aI0
aI0
asg34
(lp122
I0
aI0
aI0
aI0
aI0
aI0
aI0
aI0
aI0
aI0
asg36
(lp123
I0
aI0
aI0
aI0
aI0
aI0
aI0
aI0
aI0
aI0
asg38
(lp124
I0
aI0
aI0
aI0
aI0
aI0
aI0
aI0
aI0
aI0
asg40
(lp125
I0
aI0
aI0
aI0
aI0
aI0
aI0
aI0
aI0
aI0
asg42
(lp126
I0
aI0
aI0
aI0
aI0
aI0
aI0
aI0
aI0
aI0
asg44
(lp127
I0
aI0
aI0
aI0
aI0
aI0
aI0
aI0
aI0
aI0
asg46
(lp128
I0
aI0
aI0
aI0
aI0
aI0
aI0
aI0
aI0
aI0
asg48
(lp129
I0
aI0
aI0
aI0
aI0
aI0
aI0
aI0
aI0
aI0
asg50
(lp130
I0
aI0
aI0
aI0
aI0
aI0
aI0
aI0
aI0
aI0
asg52
(lp131
I0
aI0
aI0
aI0
aI0
aI0
aI0
aI0
aI0
aI0
asg54
(lp132
I0
aI0
aI0
aI0
aI0
aI0
aI0
aI0
aI0
aI0
asg56
(lp133
I0
aI0
aI0
aI0
aI0
aI0
aI0
aI0
aI0
aI0
asg58
(lp134
I0
aI0
aI0
aI0
aI0
aI0
aI0
aI0
aI0
aI0
asg60
(lp135
F0.012048192771084338
aF0.029607843137254904
aI0
aF0.066666666666666666
aF0.031904761904761908
aF0.033318034040925613
aF0.012048192771084338
aI0
aF0.057333941328469369
aI0
asg62
(lp136
I0
aI0
aI0
aI0
aI0
aI0
aI0
aI0
aI0
aI0
asg64
(lp137
I0
aI0
aI0
aI0
aI0
aI0
aI0
aI0
aI0
aI0
asg66
(lp138
I0
aI0
aI0
aI0
aI0
aI0
aI0
aI0
aI0
aI0
asg68
(lp139
I0
aI0
aI0
aI0
aI0
aI0
aI0
aI0
aI0
aI0
asg70
(lp140
I0
aI0
aI0
aI0
aI0
aI0
aI0
aI0
aI0
aI0
asg72
(lp141
I0
aI0
aI0
aI0
aI0
aI0
aI0
aI0
aI0
aI0
asg74
(lp142
I0
aI0
aI0
aI0
aI0
aI0
aI0
aI0
aI0
aI0
asg76
(lp143
I0
aI0
aI0
aI0
aI0
aI0
aI0
aI0
aI0
aI0
asg78
(lp144
I0
aI0
aI0
aI0
aI0
aI0
aI0
aI0
aI0
aI0
asg80
(lp145
I0
aI0
aI0
aI0
aI0
aI0
aI0
aI0
aI0
aI0
asg82
(lp146
I0
aI0
aI0
aI0
aI0
aI0
aI0
aI0
aI0
aI0
asg84
(lp147
I0
aI0
aI0
aI0
aI0
aI0
aI0
aI0
aI0
aI0
asg86
(lp148
I0
aI0
aI0
aI0
aI0
aI0
aI0
aI0
aI0
aI0
asg88
(lp149
I0
aI0
aI0
aI0
aI0
aI0
aI0
aI0
aI0
aI0
asg90
(lp150
F0.33333333333333331
aI0
aI0
aF0.33333333333333331
aF0.16666666666666666
aF0.16666666666666666
aF0.33333333333333331
aI0
aI0
aI0
asg92
(lp151
I0
aI0
aI0
aI0
aI0
aI0
aI0
aI0
aI0
aI0
asg94
(lp152
I0
aI0
aI0
aI0
aI0
aI0
aI0
aI0
aI0
aI0
asg96
(lp153
I0
aI0
aI0
aI0
aI0
aI0
aI0
aI0
aI0
aI0
asg98
(lp154
I0
aI0
aI0
aI0
aI0
aI0
aI0
aI0
aI0
aI0
asg100
(lp155
I0
aI0
aI0
aI0
aI0
aI0
aI0
aI0
aI0
aI0
asg102
(lp156
F0.038461538461538464
aI0
aF0.14673913043478259
aF0.01020408163265306
aF0.01020408163265306
aF0.20000000000000001
aF0.51020408163265307
aF0.022727272727272728
aF0.029434850863422291
aI0
asg104
(lp157
I0
aI0
aI0
aI0
aI0
aI0
aI0
aI0
aI0
aI0
assS'0.3'
p158
(dp159
g6
(lp160
I0
aI0
aI0
aI0
aI0
aI0
aI0
aI0
aI0
aI0
asg8
(lp161
I0
aI0
aI0
aI0
aI0
aI0
aI0
aI0
aI0
aI0
asg10
(lp162
I0
aI0
aI0
aI0
aI0
aI0
aI0
aI0
aI0
aI0
asg12
(lp163
I0
aI0
aI0
aF0.017857142857142856
aI0
aI0
aI0
aF0.018181818181818181
aI0
aF0.018181818181818181
asg14
(lp164
I0
aI0
aI0
aI0
aI0
aI0
aI0
aI0
aI0
aI0
asg16
(lp165
I0
aI0
aI0
aI0
aI0
aI0
aI0
aI0
aI0
aI0
asg18
(lp166
I0
aI0
aI0
aI0
aI0
aI0
aI0
aI0
aI0
aI0
asg20
(lp167
I0
aI0
aI0
aI0
aI0
aI0
aI0
aI0
aI0
aI0
asg22
(lp168
I0
aI0
aI0
aI0
aI0
aI0
aI0
aI0
aI0
aI0
asg24
(lp169
I0
aI0
aI0
aI0
aI0
aI0
aI0
aI0
aI0
aI0
asg26
(lp170
I0
aI0
aI0
aI0
aI0
aI0
aI0
aI0
aI0
aI0
asg28
(lp171
I0
aI0
aI0
aI0
aI0
aI0
aI0
aI0
aI0
aI0
asg30
(lp172
I0
aI0
aI0
aI0
aI0
aI0
aI0
aI0
aI0
aI0
asg32
(lp173
I0
aI0
aI0
aI0
aI0
aI0
aI0
aI0
aI0
aI0
asg34
(lp174
I0
aI0
aI0
aI0
aI0
aI0
aI0
aI0
aI0
aI0
asg36
(lp175
I0
aI0
aI0
aI0
aI0
aI0
aI0
aI0
aI0
aI0
asg38
(lp176
I0
aI0
aI0
aI0
aI0
aI0
aI0
aI0
aI0
aI0
asg40
(lp177
I0
aI0
aI0
aI0
aI0
aI0
aI0
aI0
aI0
aI0
asg42
(lp178
I0
aI0
aI0
aI0
aI0
aI0
aI0
aI0
aI0
aI0
asg44
(lp179
I0
aI0
aI0
aI0
aI0
aI0
aI0
aI0
aI0
aI0
asg46
(lp180
I0
aI0
aI0
aI0
aI0
aI0
aI0
aI0
aI0
aI0
asg48
(lp181
I0
aI0
aI0
aI0
aI0
aI0
aI0
aI0
aI0
aI0
asg50
(lp182
I0
aI0
aI0
aI0
aI0
aI0
aI0
aI0
aI0
aI0
asg52
(lp183
I0
aI0
aI0
aI0
aI0
aI0
aI0
aI0
aI0
aI0
asg54
(lp184
I0
aI0
aI0
aI0
aI0
aI0
aI0
aI0
aI0
aI0
asg56
(lp185
I0
aI0
aI0
aI0
aI0
aI0
aI0
aI0
aI0
aI0
asg58
(lp186
I0
aI0
aI0
aI0
aI0
aI0
aI0
aI0
aI0
aI0
asg60
(lp187
F0.012048192771084338
aF0.023809523809523808
aI0
aI0
aF0.02
aI0
aF0.023809523809523808
aI0
aF0.023809523809523808
aF0.0625
asg62
(lp188
I0
aI0
aI0
aI0
aI0
aI0
aI0
aI0
aI0
aI0
asg64
(lp189
I0
aI0
aI0
aI0
aI0
aI0
aI0
aI0
aI0
aI0
asg66
(lp190
I0
aI0
aI0
aI0
aI0
aI0
aI0
aI0
aI0
aI0
asg68
(lp191
I0
aI0
aI0
aI0
aI0
aI0
aI0
aI0
aI0
aI0
asg70
(lp192
I0
aI0
aI0
aI0
aI0
aI0
aI0
aI0
aI0
aI0
asg72
(lp193
I0
aI0
aI0
aI0
aI0
aI0
aI0
aI0
aI0
aI0
asg74
(lp194
I0
aI0
aI0
aI0
aI0
aI0
aI0
aI0
aI0
aI0
asg76
(lp195
I0
aI0
aI0
aI0
aI0
aI0
aI0
aI0
aI0
aI0
asg78
(lp196
I0
aI0
aI0
aI0
aI0
aI0
aI0
aI0
aI0
aI0
asg80
(lp197
I0
aI0
aI0
aI0
aI0
aI0
aI0
aI0
aI0
aI0
asg82
(lp198
I0
aI0
aI0
aI0
aI0
aI0
aI0
aI0
aI0
aI0
asg84
(lp199
I0
aI0
aI0
aI0
aI0
aI0
aI0
aI0
aI0
aI0
asg86
(lp200
I0
aI0
aI0
aI0
aI0
aI0
aI0
aI0
aI0
aI0
asg88
(lp201
I0
aI0
aI0
aI0
aI0
aI0
aI0
aI0
aI0
aI0
asg90
(lp202
I0
aF0.16666666666666666
aI0
aF0.16666666666666666
aF0.16666666666666666
aI0
aI0
aF0.16666666666666666
aI0
aI0
asg92
(lp203
I0
aI0
aI0
aI0
aI0
aI0
aI0
aI0
aI0
aI0
asg94
(lp204
I0
aI0
aI0
aI0
aI0
aI0
aI0
aI0
aI0
aI0
asg96
(lp205
I0
aI0
aI0
aI0
aI0
aI0
aI0
aI0
aI0
aI0
asg98
(lp206
I0
aI0
aI0
aI0
aI0
aI0
aI0
aI0
aI0
aI0
asg100
(lp207
I0
aI0
aI0
aI0
aI0
aI0
aI0
aI0
aI0
aI0
asg102
(lp208
I0
aF0.12702702702702703
aF0.52222222222222225
aF0.021276595744680851
aF0.66666666666666663
aF0.021276595744680851
aF0.038461538461538464
aF0.51000000000000001
aF0.12222222222222223
aF0.35814814814814816
asg104
(lp209
I0
aI0
aI0
aI0
aI0
aI0
aI0
aI0
aI0
aI0
assS'0.01'
p210
(dp211
g6
(lp212
I0
aI0
aI0
aI0
aI0
aI0
aI0
aI0
aI0
aI0
asg8
(lp213
I0
aI0
aI0
aI0
aI0
aI0
aI0
aI0
aI0
aI0
asg10
(lp214
I0
aI0
aI0
aI0
aI0
aI0
aI0
aI0
aI0
aI0
asg12
(lp215
I0
aI0
aI0
aI0
aF0.018867924528301886
aF0.018867924528301886
aI0
aI0
aF0.018867924528301886
aI0
asg14
(lp216
I0
aI0
aI0
aI0
aI0
aI0
aI0
aI0
aI0
aI0
asg16
(lp217
I0
aI0
aI0
aI0
aI0
aI0
aI0
aI0
aI0
aI0
asg18
(lp218
I0
aI0
aI0
aI0
aI0
aI0
aI0
aI0
aI0
aI0
asg20
(lp219
I0
aI0
aI0
aI0
aI0
aI0
aI0
aI0
aI0
aI0
asg22
(lp220
I0
aI0
aI0
aI0
aI0
aI0
aI0
aI0
aI0
aI0
asg24
(lp221
I0
aI0
aI0
aI0
aI0
aI0
aI0
aI0
aI0
aI0
asg26
(lp222
I0
aI0
aI0
aI0
aI0
aI0
aI0
aI0
aI0
aI0
asg28
(lp223
I0
aI0
aI0
aI0
aI0
aI0
aI0
aI0
aI0
aI0
asg30
(lp224
I0
aI0
aI0
aI0
aI0
aI0
aI0
aI0
aI0
aI0
asg32
(lp225
I0
aI0
aI0
aI0
aI0
aI0
aI0
aI0
aI0
aI0
asg34
(lp226
I0
aI0
aI0
aI0
aI0
aI0
aI0
aI0
aI0
aI0
asg36
(lp227
I0
aI0
aI0
aI0
aI0
aI0
aI0
aI0
aI0
aI0
asg38
(lp228
I0
aI0
aI0
aI0
aI0
aI0
aI0
aI0
aI0
aI0
asg40
(lp229
I0
aI0
aI0
aI0
aI0
aI0
aI0
aI0
aI0
aI0
asg42
(lp230
I0
aI0
aI0
aI0
aI0
aI0
aI0
aI0
aI0
aI0
asg44
(lp231
I0
aI0
aI0
aI0
aI0
aI0
aI0
aI0
aI0
aI0
asg46
(lp232
I0
aI0
aI0
aI0
aI0
aI0
aI0
aI0
aI0
aI0
asg48
(lp233
I0
aI0
aI0
aI0
aI0
aI0
aI0
aI0
aI0
aI0
asg50
(lp234
I0
aI0
aI0
aI0
aI0
aI0
aI0
aI0
aI0
aI0
asg52
(lp235
I0
aI0
aI0
aI0
aI0
aI0
aI0
aI0
aI0
aI0
asg54
(lp236
I0
aI0
aI0
aI0
aI0
aI0
aI0
aI0
aI0
aI0
asg56
(lp237
I0
aI0
aI0
aI0
aI0
aI0
aI0
aI0
aI0
aI0
asg58
(lp238
I0
aI0
aI0
aI0
aI0
aI0
aI0
aI0
aI0
aI0
asg60
(lp239
I0
aF0.054524886877828055
aI0
aF0.031512605042016806
aF0.056956867421983699
aF0.023809523809523808
aF0.023809523809523808
aF0.012048192771084338
aF0.031512605042016806
aF0.02
asg62
(lp240
I0
aI0
aI0
aI0
aI0
aI0
aI0
aI0
aI0
aI0
asg64
(lp241
I0
aI0
aI0
aI0
aI0
aI0
aI0
aI0
aI0
aI0
asg66
(lp242
I0
aI0
aI0
aI0
aI0
aI0
aI0
aI0
aI0
aI0
asg68
(lp243
I0
aI0
aI0
aI0
aI0
aI0
aI0
aI0
aI0
aI0
asg70
(lp244
I0
aI0
aI0
aI0
aI0
aI0
aI0
aI0
aI0
aI0
asg72
(lp245
I0
aI0
aI0
aI0
aI0
aI0
aI0
aI0
aI0
aI0
asg74
(lp246
I0
aI0
aI0
aI0
aI0
aI0
aI0
aI0
aI0
aI0
asg76
(lp247
I0
aI0
aI0
aI0
aI0
aI0
aI0
aI0
aI0
aI0
asg78
(lp248
I0
aI0
aI0
aI0
aI0
aI0
aI0
aI0
aI0
aI0
asg80
(lp249
I0
aI0
aI0
aI0
aI0
aI0
aI0
aI0
aI0
aI0
asg82
(lp250
I0
aI0
aI0
aI0
aI0
aI0
aI0
aI0
aI0
aI0
asg84
(lp251
I0
aI0
aI0
aI0
aI0
aI0
aI0
aI0
aI0
aI0
asg86
(lp252
I0
aI0
aI0
aI0
aI0
aI0
aI0
aI0
aI0
aI0
asg88
(lp253
I0
aI0
aI0
aI0
aI0
aI0
aI0
aI0
aI0
aI0
asg90
(lp254
I0
aF0.33333333333333331
aF0.16666666666666666
aI0
aF0.33333333333333331
aI0
aI0
aI0
aI0
aI0
asg92
(lp255
I0
aI0
aI0
aI0
aI0
aI0
aI0
aI0
aI0
aI0
asg94
(lp256
I0
aI0
aI0
aI0
aI0
aI0
aI0
aI0
aI0
aI0
asg96
(lp257
I0
aI0
aI0
aI0
aI0
aI0
aI0
aI0
aI0
aI0
asg98
(lp258
I0
aI0
aI0
aI0
aI0
aI0
aI0
aI0
aI0
aI0
asg100
(lp259
I0
aI0
aI0
aI0
aI0
aI0
aI0
aI0
aI0
aI0
asg102
(lp260
F1
aF0.022222222222222223
aF0.13520408163265307
aF0.040507364975450086
aF0.53846153846153844
aF0.15202702702702703
aF0.020842379504993486
aF0.038461538461538464
aF0.3802509547190398
aF0.021315192743764172
asg104
(lp261
I0
aI0
aI0
aI0
aI0
aI0
aI0
aI0
aI0
aI0
assS'0.5'
p262
(dp263
g6
(lp264
I0
aI0
aI0
aI0
aI0
aI0
aI0
aI0
aI0
aI0
asg8
(lp265
I0
aI0
aI0
aI0
aI0
aI0
aI0
aI0
aI0
aI0
asg10
(lp266
I0
aI0
aI0
aI0
aI0
aI0
aI0
aI0
aI0
aI0
asg12
(lp267
I0
aF0.016129032258064516
aI0
aI0
aF0.016129032258064516
aI0
aI0
aI0
aI0
aI0
asg14
(lp268
I0
aI0
aI0
aI0
aI0
aI0
aI0
aI0
aI0
aI0
asg16
(lp269
I0
aI0
aI0
aI0
aI0
aI0
aI0
aI0
aI0
aI0
asg18
(lp270
I0
aI0
aI0
aI0
aI0
aI0
aI0
aI0
aI0
aI0
asg20
(lp271
I0
aI0
aI0
aI0
aI0
aI0
aI0
aI0
aI0
aI0
asg22
(lp272
I0
aI0
aI0
aI0
aI0
aI0
aI0
aI0
aI0
aI0
asg24
(lp273
I0
aI0
aI0
aI0
aI0
aI0
aI0
aI0
aI0
aI0
asg26
(lp274
I0
aI0
aI0
aI0
aI0
aI0
aI0
aI0
aI0
aI0
asg28
(lp275
I0
aI0
aI0
aI0
aI0
aI0
aI0
aI0
aI0
aI0
asg30
(lp276
I0
aI0
aI0
aI0
aI0
aI0
aI0
aI0
aI0
aI0
asg32
(lp277
I0
aI0
aI0
aI0
aI0
aI0
aI0
aI0
aI0
aI0
asg34
(lp278
I0
aI0
aI0
aI0
aI0
aI0
aI0
aI0
aI0
aI0
asg36
(lp279
I0
aI0
aI0
aI0
aI0
aI0
aI0
aI0
aI0
aI0
asg38
(lp280
I0
aI0
aI0
aI0
aI0
aI0
aI0
aI0
aI0
aI0
asg40
(lp281
I0
aI0
aI0
aI0
aI0
aI0
aI0
aI0
aI0
aI0
asg42
(lp282
I0
aI0
aI0
aI0
aI0
aI0
aI0
aI0
aI0
aI0
asg44
(lp283
I0
aI0
aI0
aI0
aI0
aI0
aI0
aI0
aI0
aI0
asg46
(lp284
I0
aI0
aI0
aI0
aI0
aI0
aI0
aI0
aI0
aI0
asg48
(lp285
I0
aI0
aI0
aI0
aI0
aI0
aI0
aI0
aI0
aI0
asg50
(lp286
I0
aI0
aI0
aI0
aI0
aI0
aI0
aI0
aI0
aI0
asg52
(lp287
I0
aI0
aI0
aI0
aI0
aI0
aI0
aI0
aI0
aI0
asg54
(lp288
I0
aI0
aI0
aI0
aI0
aI0
aI0
aI0
aI0
aI0
asg56
(lp289
I0
aI0
aI0
aI0
aI0
aI0
aI0
aI0
aI0
aI0
asg58
(lp290
I0
aI0
aI0
aI0
aI0
aI0
aI0
aI0
aI0
aI0
asg60
(lp291
I0
aF0.023255813953488372
aF0.019607843137254902
aI0
aF0.046536796536796536
aF0.047619047619047616
aF0.023809523809523808
aF0.04231879231879232
aF0.046536796536796536
aF0.031135531135531136
asg62
(lp292
I0
aI0
aI0
aI0
aI0
aI0
aI0
aI0
aI0
aI0
asg64
(lp293
I0
aI0
aI0
aI0
aI0
aI0
aI0
aI0
aI0
aI0
asg66
(lp294
I0
aI0
aI0
aI0
aI0
aI0
aI0
aI0
aI0
aI0
asg68
(lp295
I0
aI0
aI0
aI0
aI0
aI0
aI0
aI0
aI0
aI0
asg70
(lp296
I0
aI0
aI0
aI0
aI0
aI0
aI0
aI0
aI0
aI0
asg72
(lp297
I0
aI0
aI0
aI0
aI0
aI0
aI0
aI0
aI0
aI0
asg74
(lp298
I0
aI0
aI0
aI0
aI0
aI0
aI0
aI0
aI0
aI0
asg76
(lp299
I0
aI0
aI0
aI0
aI0
aI0
aI0
aI0
aI0
aI0
asg78
(lp300
I0
aI0
aI0
aI0
aI0
aI0
aI0
aI0
aI0
aI0
asg80
(lp301
I0
aI0
aI0
aI0
aI0
aI0
aI0
aI0
aI0
aI0
asg82
(lp302
I0
aI0
aI0
aI0
aI0
aI0
aI0
aI0
aI0
aI0
asg84
(lp303
I0
aI0
aI0
aI0
aI0
aI0
aI0
aI0
aI0
aI0
asg86
(lp304
I0
aI0
aI0
aI0
aI0
aI0
aI0
aI0
aI0
aI0
asg88
(lp305
I0
aI0
aI0
aI0
aI0
aI0
aI0
aI0
aI0
aI0
asg90
(lp306
F0.125
aI0
aF0.125
aI0
aI0
aI0
aI0
aF0.33333333333333331
aF0.33333333333333331
aI0
asg92
(lp307
I0
aI0
aI0
aI0
aI0
aI0
aI0
aI0
aI0
aI0
asg94
(lp308
I0
aI0
aI0
aI0
aI0
aI0
aI0
aI0
aI0
aI0
asg96
(lp309
I0
aI0
aI0
aI0
aI0
aI0
aI0
aI0
aI0
aI0
asg98
(lp310
I0
aI0
aI0
aI0
aI0
aI0
aI0
aI0
aI0
aI0
asg100
(lp311
I0
aI0
aI0
aI0
aI0
aI0
aI0
aI0
aI0
aI0
asg102
(lp312
F0.066666666666666666
aF0.1111111111111111
aF0.16233766233766234
aI0
aF0.077712609970674487
aF0.024390243902439025
aF0.066666666666666666
aF0.055555555555555552
aF0.090909090909090912
aF0.066666666666666666
asg104
(lp313
I0
aI0
aI0
aI0
aI0
aI0
aI0
aI0
aI0
aI0
assS'0.7'
p314
(dp315
g6
(lp316
I0
aI0
aI0
aI0
aI0
aI0
aI0
aI0
aI0
aI0
asg8
(lp317
I0
aI0
aI0
aI0
aI0
aI0
aI0
aI0
aI0
aI0
asg10
(lp318
I0
aI0
aI0
aI0
aI0
aI0
aI0
aI0
aI0
aI0
asg12
(lp319
I0
aI0
aI0
aI0
aI0
aI0
aI0
aI0
aI0
aI0
asg14
(lp320
I0
aI0
aI0
aI0
aI0
aI0
aI0
aI0
aI0
aI0
asg16
(lp321
I0
aI0
aI0
aI0
aI0
aI0
aI0
aI0
aI0
aI0
asg18
(lp322
I0
aI0
aI0
aI0
aI0
aI0
aI0
aI0
aI0
aI0
asg20
(lp323
I0
aI0
aI0
aI0
aI0
aI0
aI0
aI0
aI0
aI0
asg22
(lp324
I0
aI0
aI0
aI0
aI0
aI0
aI0
aI0
aI0
aI0
asg24
(lp325
I0
aI0
aI0
aI0
aI0
aI0
aI0
aI0
aI0
aI0
asg26
(lp326
I0
aI0
aI0
aI0
aI0
aI0
aI0
aI0
aI0
aI0
asg28
(lp327
I0
aI0
aI0
aI0
aI0
aI0
aI0
aI0
aI0
aI0
asg30
(lp328
I0
aI0
aI0
aI0
aI0
aI0
aI0
aI0
aI0
aI0
asg32
(lp329
I0
aI0
aI0
aI0
aI0
aI0
aI0
aI0
aI0
aI0
asg34
(lp330
I0
aI0
aI0
aI0
aI0
aI0
aI0
aI0
aI0
aI0
asg36
(lp331
I0
aI0
aI0
aI0
aI0
aI0
aI0
aI0
aI0
aI0
asg38
(lp332
I0
aI0
aI0
aI0
aI0
aI0
aI0
aI0
aI0
aI0
asg40
(lp333
I0
aI0
aI0
aI0
aI0
aI0
aI0
aI0
aI0
aI0
asg42
(lp334
I0
aI0
aI0
aI0
aI0
aI0
aI0
aI0
aI0
aI0
asg44
(lp335
I0
aI0
aI0
aI0
aI0
aI0
aI0
aI0
aI0
aI0
asg46
(lp336
I0
aI0
aI0
aI0
aI0
aI0
aI0
aI0
aI0
aI0
asg48
(lp337
I0
aI0
aI0
aI0
aI0
aI0
aI0
aI0
aI0
aI0
asg50
(lp338
I0
aI0
aI0
aI0
aI0
aI0
aI0
aI0
aI0
aI0
asg52
(lp339
I0
aI0
aI0
aI0
aI0
aI0
aI0
aI0
aI0
aI0
asg54
(lp340
I0
aI0
aI0
aI0
aI0
aI0
aI0
aI0
aI0
aI0
asg56
(lp341
I0
aI0
aI0
aI0
aI0
aI0
aI0
aI0
aI0
aI0
asg58
(lp342
I0
aI0
aI0
aI0
aI0
aI0
aI0
aI0
aI0
aI0
asg60
(lp343
F0.016949152542372881
aF0.039968652037617555
aF0.016949152542372881
aF0.045454545454545456
aF0.049043062200956937
aF0.016949152542372881
aI0
aF0.026315789473684209
aI0
aF0.090909090909090912
asg62
(lp344
I0
aI0
aI0
aI0
aI0
aI0
aI0
aI0
aI0
aI0
asg64
(lp345
I0
aI0
aI0
aI0
aI0
aI0
aI0
aI0
aI0
aI0
asg66
(lp346
I0
aI0
aI0
aI0
aI0
aI0
aI0
aI0
aI0
aI0
asg68
(lp347
I0
aI0
aI0
aI0
aI0
aI0
aI0
aI0
aI0
aI0
asg70
(lp348
I0
aI0
aI0
aI0
aI0
aI0
aI0
aI0
aI0
aI0
asg72
(lp349
I0
aI0
aI0
aI0
aI0
aI0
aI0
aI0
aI0
aI0
asg74
(lp350
I0
aI0
aI0
aI0
aI0
aI0
aI0
aI0
aI0
aI0
asg76
(lp351
I0
aI0
aI0
aI0
aI0
aI0
aI0
aI0
aI0
aI0
asg78
(lp352
I0
aI0
aI0
aI0
aI0
aI0
aI0
aI0
aI0
aI0
asg80
(lp353
I0
aI0
aI0
aI0
aI0
aI0
aI0
aI0
aI0
aI0
asg82
(lp354
I0
aI0
aI0
aI0
aI0
aI0
aI0
aI0
aI0
aI0
asg84
(lp355
I0
aI0
aI0
aI0
aI0
aI0
aI0
aI0
aI0
aI0
asg86
(lp356
I0
aI0
aI0
aI0
aI0
aI0
aI0
aI0
aI0
aI0
asg88
(lp357
I0
aI0
aI0
aI0
aI0
aI0
aI0
aI0
aI0
aI0
asg90
(lp358
I0
aF0.25
aF0.25
aI0
aI0
aI0
aI0
aF0.25
aI0
aI0
asg92
(lp359
I0
aI0
aI0
aI0
aI0
aI0
aI0
aI0
aI0
aI0
asg94
(lp360
I0
aI0
aI0
aI0
aI0
aI0
aI0
aI0
aI0
aI0
asg96
(lp361
I0
aI0
aI0
aI0
aI0
aI0
aI0
aI0
aI0
aI0
asg98
(lp362
I0
aI0
aI0
aI0
aI0
aI0
aI0
aI0
aI0
aI0
asg100
(lp363
I0
aI0
aI0
aI0
aI0
aI0
aI0
aI0
aI0
aI0
asg102
(lp364
F0.083333333333333329
aF0.037037037037037035
aI0
aF0.10000000000000001
aF0.083333333333333329
aF0.082258064516129034
aF0.050115207373271888
aF0.10456847015986799
aI0
aF0.080303030303030307
asg104
(lp365
I0
aI0
aI0
aI0
aI0
aI0
aI0
aI0
aI0
aI0
assS'0.05'
p366
(dp367
g6
(lp368
I0
aI0
aI0
aI0
aI0
aI0
aI0
aI0
aI0
aI0
asg8
(lp369
I0
aI0
aI0
aI0
aI0
aI0
aI0
aI0
aI0
aI0
asg10
(lp370
I0
aI0
aI0
aI0
aI0
aI0
aI0
aI0
aI0
aI0
asg12
(lp371
I0
aI0
aF0.018867924528301886
aI0
aI0
aF0.018867924528301886
aI0
aF0.018867924528301886
aI0
aI0
asg14
(lp372
I0
aI0
aI0
aI0
aI0
aI0
aI0
aI0
aI0
aI0
asg16
(lp373
I0
aI0
aI0
aI0
aI0
aI0
aI0
aI0
aI0
aI0
asg18
(lp374
I0
aI0
aI0
aI0
aI0
aI0
aI0
aI0
aI0
aI0
asg20
(lp375
I0
aI0
aI0
aI0
aI0
aI0
aI0
aI0
aI0
aI0
asg22
(lp376
I0
aI0
aI0
aI0
aI0
aI0
aI0
aI0
aI0
aI0
asg24
(lp377
I0
aI0
aI0
aI0
aI0
aI0
aI0
aI0
aI0
aI0
asg26
(lp378
I0
aI0
aI0
aI0
aI0
aI0
aI0
aI0
aI0
aI0
asg28
(lp379
I0
aI0
aI0
aI0
aI0
aI0
aI0
aI0
aI0
aI0
asg30
(lp380
I0
aI0
aI0
aI0
aI0
aI0
aI0
aI0
aI0
aI0
asg32
(lp381
I0
aI0
aI0
aI0
aI0
aI0
aI0
aI0
aI0
aI0
asg34
(lp382
I0
aI0
aI0
aI0
aI0
aI0
aI0
aI0
aI0
aI0
asg36
(lp383
I0
aI0
aI0
aI0
aI0
aI0
aI0
aI0
aI0
aI0
asg38
(lp384
I0
aI0
aI0
aI0
aI0
aI0
aI0
aI0
aI0
aI0
asg40
(lp385
I0
aI0
aI0
aI0
aI0
aI0
aI0
aI0
aI0
aI0
asg42
(lp386
I0
aI0
aI0
aI0
aI0
aI0
aI0
aI0
aI0
aI0
asg44
(lp387
I0
aI0
aI0
aI0
aI0
aI0
aI0
aI0
aI0
aI0
asg46
(lp388
I0
aI0
aI0
aI0
aI0
aI0
aI0
aI0
aI0
aI0
asg48
(lp389
I0
aI0
aI0
aI0
aI0
aI0
aI0
aI0
aI0
aI0
asg50
(lp390
I0
aI0
aI0
aI0
aI0
aI0
aI0
aI0
aI0
aI0
asg52
(lp391
I0
aI0
aI0
aI0
aI0
aI0
aI0
aI0
aI0
aI0
asg54
(lp392
I0
aI0
aI0
aI0
aI0
aI0
aI0
aI0
aI0
aI0
asg56
(lp393
I0
aI0
aI0
aI0
aI0
aI0
aI0
aI0
aI0
aI0
asg58
(lp394
I0
aI0
aI0
aI0
aI0
aI0
aI0
aI0
aI0
aI0
asg60
(lp395
F0.02
aF0.029607843137254904
aF0.045238095238095237
aF0.052564102564102565
aI0
aI0
aI0
aI0
aI0
aI0
asg62
(lp396
I0
aI0
aI0
aI0
aI0
aI0
aI0
aI0
aI0
aI0
asg64
(lp397
I0
aI0
aI0
aI0
aI0
aI0
aI0
aI0
aI0
aI0
asg66
(lp398
I0
aI0
aI0
aI0
aI0
aI0
aI0
aI0
aI0
aI0
asg68
(lp399
I0
aI0
aI0
aI0
aI0
aI0
aI0
aI0
aI0
aI0
asg70
(lp400
I0
aI0
aI0
aI0
aI0
aI0
aI0
aI0
aI0
aI0
asg72
(lp401
I0
aI0
aI0
aI0
aI0
aI0
aI0
aI0
aI0
aI0
asg74
(lp402
I0
aI0
aI0
aI0
aI0
aI0
aI0
aI0
aI0
aI0
asg76
(lp403
I0
aI0
aI0
aI0
aI0
aI0
aI0
aI0
aI0
aI0
asg78
(lp404
I0
aI0
aI0
aI0
aI0
aI0
aI0
aI0
aI0
aI0
asg80
(lp405
I0
aI0
aI0
aI0
aI0
aI0
aI0
aI0
aI0
aI0
asg82
(lp406
I0
aI0
aI0
aI0
aI0
aI0
aI0
aI0
aI0
aI0
asg84
(lp407
I0
aI0
aI0
aI0
aI0
aI0
aI0
aI0
aI0
aI0
asg86
(lp408
I0
aI0
aI0
aI0
aI0
aI0
aI0
aI0
aI0
aI0
asg88
(lp409
I0
aI0
aI0
aI0
aI0
aI0
aI0
aI0
aI0
aI0
asg90
(lp410
I0
aF0.33333333333333331
aI0
aI0
aF0.33333333333333331
aF0.33333333333333331
aI0
aI0
aF0.33333333333333331
aI0
asg92
(lp411
I0
aI0
aI0
aI0
aI0
aI0
aI0
aI0
aI0
aI0
asg94
(lp412
I0
aI0
aI0
aI0
aI0
aI0
aI0
aI0
aI0
aI0
asg96
(lp413
I0
aI0
aI0
aI0
aI0
aI0
aI0
aI0
aI0
aI0
asg98
(lp414
I0
aI0
aI0
aI0
aI0
aI0
aI0
aI0
aI0
aI0
asg100
(lp415
I0
aI0
aI0
aI0
aI0
aI0
aI0
aI0
aI0
aI0
asg102
(lp416
F0.021315192743764172
aF0.20000000000000001
aF0.022222222222222223
aI0
aF0.20000000000000001
aF0.027027027027027029
aF0.01020408163265306
aF0.040507364975450086
aF1
aI0
asg104
(lp417
I0
aI0
aI0
aI0
aI0
aI0
aI0
aI0
aI0
aI0
assS'traditional'
p418
(dp419
g6
(lp420
I0
aI0
aI0
aI0
aI0
aI0
aI0
aI0
aI0
aI0
asg8
(lp421
I0
aI0
aI0
aI0
aI0
aI0
aI0
aI0
aI0
aI0
asg10
(lp422
I0
aI0
aI0
aI0
aI0
aI0
aI0
aI0
aI0
aI0
asg12
(lp423
I0
aI0
aI0
aI0
aI0
aI0
aI0
aI0
aI0
aI0
asg14
(lp424
I0
aI0
aI0
aI0
aI0
aI0
aI0
aI0
aI0
aI0
asg16
(lp425
I0
aI0
aI0
aI0
aI0
aI0
aI0
aI0
aI0
aI0
asg18
(lp426
I0
aI0
aI0
aI0
aI0
aI0
aI0
aI0
aI0
aI0
asg20
(lp427
I0
aI0
aI0
aI0
aI0
aI0
aI0
aI0
aI0
aI0
asg22
(lp428
I0
aI0
aI0
aI0
aI0
aI0
aI0
aI0
aI0
aI0
asg24
(lp429
I0
aI0
aI0
aI0
aI0
aI0
aI0
aI0
aI0
aI0
asg26
(lp430
I0
aI0
aI0
aI0
aI0
aI0
aI0
aI0
aI0
aI0
asg28
(lp431
I0
aI0
aI0
aI0
aI0
aI0
aI0
aI0
aI0
aI0
asg30
(lp432
I0
aI0
aI0
aI0
aI0
aI0
aI0
aI0
aI0
aI0
asg32
(lp433
I0
aI0
aI0
aI0
aI0
aI0
aI0
aI0
aI0
aI0
asg34
(lp434
I0
aI0
aI0
aI0
aI0
aI0
aI0
aI0
aI0
aI0
asg36
(lp435
I0
aI0
aI0
aI0
aI0
aI0
aI0
aI0
aI0
aI0
asg38
(lp436
I0
aI0
aI0
aI0
aI0
aI0
aI0
aI0
aI0
aI0
asg40
(lp437
I0
aI0
aI0
aI0
aI0
aI0
aI0
aI0
aI0
aI0
asg42
(lp438
I0
aI0
aI0
aI0
aI0
aI0
aI0
aI0
aI0
aI0
asg44
(lp439
I0
aI0
aI0
aI0
aI0
aI0
aI0
aI0
aI0
aI0
asg46
(lp440
I0
aI0
aI0
aI0
aI0
aI0
aI0
aI0
aI0
aI0
asg48
(lp441
I0
aI0
aI0
aI0
aI0
aI0
aI0
aI0
aI0
aI0
asg50
(lp442
I0
aI0
aI0
aI0
aI0
aI0
aI0
aI0
aI0
aI0
asg52
(lp443
I0
aI0
aI0
aI0
aI0
aI0
aI0
aI0
aI0
aI0
asg54
(lp444
I0
aI0
aI0
aI0
aI0
aI0
aI0
aI0
aI0
aI0
asg56
(lp445
I0
aI0
aI0
aI0
aI0
aI0
aI0
aI0
aI0
aI0
asg58
(lp446
I0
aI0
aI0
aI0
aI0
aI0
aI0
aI0
aI0
aI0
asg60
(lp447
I0
aI0
aI0
aI0
aF0.038461538461538464
aI0
aI0
aF0.038461538461538464
aF0.038461538461538464
aI0
asg62
(lp448
I0
aI0
aI0
aI0
aI0
aI0
aI0
aI0
aI0
aI0
asg64
(lp449
I0
aI0
aI0
aI0
aI0
aI0
aI0
aI0
aI0
aI0
asg66
(lp450
I0
aI0
aI0
aI0
aI0
aI0
aI0
aI0
aI0
aI0
asg68
(lp451
I0
aI0
aI0
aI0
aI0
aI0
aI0
aI0
aI0
aI0
asg70
(lp452
I0
aI0
aI0
aI0
aI0
aI0
aI0
aI0
aI0
aI0
asg72
(lp453
I0
aI0
aI0
aI0
aI0
aI0
aI0
aI0
aI0
aI0
asg74
(lp454
I0
aI0
aI0
aI0
aI0
aI0
aI0
aI0
aI0
aI0
asg76
(lp455
I0
aI0
aI0
aI0
aI0
aI0
aI0
aI0
aI0
aI0
asg78
(lp456
I0
aI0
aI0
aI0
aI0
aI0
aI0
aI0
aI0
aI0
asg80
(lp457
I0
aI0
aI0
aI0
aI0
aI0
aI0
aI0
aI0
aI0
asg82
(lp458
I0
aI0
aI0
aI0
aI0
aI0
aI0
aI0
aI0
aI0
asg84
(lp459
I0
aI0
aI0
aI0
aI0
aI0
aI0
aI0
aI0
aI0
asg86
(lp460
I0
aI0
aI0
aI0
aI0
aI0
aI0
aI0
aI0
aI0
asg88
(lp461
I0
aI0
aI0
aI0
aI0
aI0
aI0
aI0
aI0
aI0
asg90
(lp462
I0
aI0
aI0
aI0
aI0
aI0
aI0
aI0
aI0
aI0
asg92
(lp463
I0
aI0
aI0
aI0
aI0
aI0
aI0
aI0
aI0
aI0
asg94
(lp464
I0
aI0
aI0
aI0
aI0
aI0
aI0
aI0
aI0
aI0
asg96
(lp465
I0
aI0
aI0
aI0
aI0
aI0
aI0
aI0
aI0
aI0
asg98
(lp466
I0
aI0
aI0
aI0
aI0
aI0
aI0
aI0
aI0
aI0
asg100
(lp467
I0
aI0
aI0
aI0
aI0
aI0
aI0
aI0
aI0
aI0
asg102
(lp468
F0.0625
aI0
aI0
aI0
aI0
aI0
aF0.0625
aF0.125
aF0.125
aF0.33333333333333331
asg104
(lp469
I0
aI0
aI0
aI0
aI0
aI0
aI0
aI0
aI0
aI0
assS'0.99'
p470
(dp471
g6
(lp472
I0
aI0
aI0
aI0
aI0
aI0
aI0
aI0
aI0
aI0
asg8
(lp473
I0
aI0
aI0
aI0
aI0
aI0
aI0
aI0
aI0
aI0
asg10
(lp474
I0
aI0
aI0
aI0
aI0
aI0
aI0
aI0
aI0
aI0
asg12
(lp475
I0
aF0.010101010101010102
aI0
aI0
aI0
aF0.010101010101010102
aI0
aF0.016666666666666666
aF0.016666666666666666
aI0
asg14
(lp476
I0
aI0
aI0
aI0
aI0
aI0
aI0
aI0
aI0
aI0
asg16
(lp477
I0
aI0
aI0
aI0
aI0
aI0
aI0
aI0
aI0
aI0
asg18
(lp478
I0
aI0
aI0
aI0
aI0
aI0
aI0
aI0
aI0
aI0
asg20
(lp479
I0
aI0
aI0
aI0
aI0
aI0
aI0
aI0
aI0
aI0
asg22
(lp480
I0
aI0
aI0
aI0
aI0
aI0
aI0
aI0
aI0
aI0
asg24
(lp481
I0
aI0
aI0
aI0
aI0
aI0
aI0
aI0
aI0
aI0
asg26
(lp482
I0
aI0
aI0
aI0
aI0
aI0
aI0
aI0
aI0
aI0
asg28
(lp483
I0
aI0
aI0
aI0
aI0
aI0
aI0
aI0
aI0
aI0
asg30
(lp484
I0
aI0
aI0
aI0
aI0
aI0
aI0
aI0
aI0
aI0
asg32
(lp485
I0
aI0
aI0
aI0
aI0
aI0
aI0
aI0
aI0
aI0
asg34
(lp486
I0
aI0
aI0
aI0
aI0
aI0
aI0
aI0
aI0
aI0
asg36
(lp487
I0
aI0
aI0
aI0
aI0
aI0
aI0
aI0
aI0
aI0
asg38
(lp488
I0
aI0
aI0
aI0
aI0
aI0
aI0
aI0
aI0
aI0
asg40
(lp489
I0
aI0
aI0
aI0
aI0
aI0
aI0
aI0
aI0
aI0
asg42
(lp490
I0
aI0
aI0
aI0
aI0
aI0
aI0
aI0
aI0
aI0
asg44
(lp491
I0
aI0
aI0
aI0
aI0
aI0
aI0
aI0
aI0
aI0
asg46
(lp492
I0
aI0
aI0
aI0
aI0
aI0
aI0
aI0
aI0
aI0
asg48
(lp493
I0
aI0
aI0
aI0
aI0
aI0
aI0
aI0
aI0
aI0
asg50
(lp494
I0
aI0
aI0
aI0
aI0
aI0
aI0
aI0
aI0
aI0
asg52
(lp495
I0
aI0
aI0
aI0
aI0
aI0
aI0
aI0
aI0
aI0
asg54
(lp496
I0
aI0
aI0
aI0
aI0
aI0
aI0
aI0
aI0
aI0
asg56
(lp497
I0
aI0
aI0
aI0
aI0
aI0
aI0
aI0
aI0
aI0
asg58
(lp498
I0
aI0
aI0
aI0
aI0
aI0
aI0
aI0
aI0
aI0
asg60
(lp499
I0
aF0.14285714285714285
aF0.017241379310344827
aI0
aF0.14285714285714285
aI0
aF0.017241379310344827
aF0.022727272727272728
aF0.14285714285714285
aF0.022727272727272728
asg62
(lp500
I0
aI0
aI0
aI0
aI0
aI0
aI0
aI0
aI0
aI0
asg64
(lp501
I0
aI0
aI0
aI0
aI0
aI0
aI0
aI0
aI0
aI0
asg66
(lp502
I0
aI0
aI0
aI0
aI0
aI0
aI0
aI0
aI0
aI0
asg68
(lp503
I0
aI0
aI0
aI0
aI0
aI0
aI0
aI0
aI0
aI0
asg70
(lp504
I0
aI0
aI0
aI0
aI0
aI0
aI0
aI0
aI0
aI0
asg72
(lp505
I0
aI0
aI0
aI0
aI0
aI0
aI0
aI0
aI0
aI0
asg74
(lp506
I0
aI0
aI0
aI0
aI0
aI0
aI0
aI0
aI0
aI0
asg76
(lp507
I0
aI0
aI0
aI0
aI0
aI0
aI0
aI0
aI0
aI0
asg78
(lp508
I0
aI0
aI0
aI0
aI0
aI0
aI0
aI0
aI0
aI0
asg80
(lp509
I0
aI0
aI0
aI0
aI0
aI0
aI0
aI0
aI0
aI0
asg82
(lp510
I0
aI0
aI0
aI0
aI0
aI0
aI0
aI0
aI0
aI0
asg84
(lp511
I0
aI0
aI0
aI0
aI0
aI0
aI0
aI0
aI0
aI0
asg86
(lp512
I0
aI0
aI0
aI0
aI0
aI0
aI0
aI0
aI0
aI0
asg88
(lp513
I0
aI0
aI0
aI0
aI0
aI0
aI0
aI0
aI0
aI0
asg90
(lp514
I0
aF0.076923076923076927
aI0
aI0
aI0
aI0
aI0
aI0
aF0.076923076923076927
aI0
asg92
(lp515
I0
aI0
aI0
aI0
aI0
aI0
aI0
aI0
aI0
aI0
asg94
(lp516
I0
aI0
aI0
aI0
aI0
aI0
aI0
aI0
aI0
aI0
asg96
(lp517
I0
aI0
aI0
aI0
aI0
aI0
aI0
aI0
aI0
aI0
asg98
(lp518
I0
aI0
aI0
aI0
aI0
aI0
aI0
aI0
aI0
aI0
asg100
(lp519
I0
aI0
aI0
aI0
aI0
aI0
aI0
aI0
aI0
aI0
asg102
(lp520
I0
aI0
aF0.047619047619047616
aF0.027027027027027029
aF0.035714285714285712
aF0.14285714285714285
aF0.047619047619047616
aF0.027027027027027029
aF0.051190476190476189
aI0
asg104
(lp521
I0
aI0
aI0
aI0
aI0
aI0
aI0
aI0
aI0
aI0
asssS'SR'
p522
(dp523
S'0.9'
p524
(dp525
g6
(lp526
I0
aI0
aI0
aI0
aI0
aI0
aI0
aI0
aI0
aI0
asg8
(lp527
I0
aI0
aI0
aI0
aI0
aI0
aI0
aI0
aI0
aI0
asg10
(lp528
I0
aI0
aI0
aI0
aI0
aI0
aI0
aI0
aI0
aI0
asg12
(lp529
I0
aI0
aI0
aI0
aI0
aI0
aI0
aI0
aI0
aI0
asg14
(lp530
I0
aI0
aI0
aI0
aI0
aI0
aI0
aI0
aI0
aI0
asg16
(lp531
I0
aI0
aI0
aI0
aI0
aI0
aI0
aI0
aI0
aI0
asg18
(lp532
I0
aI0
aI0
aI0
aI0
aI0
aI0
aI0
aI0
aI0
asg20
(lp533
I0
aI0
aI0
aI0
aI0
aI0
aI0
aI0
aI0
aI0
asg22
(lp534
I0
aI0
aI0
aI0
aI0
aI0
aI0
aI0
aF0.090909090909090912
aI0
asg24
(lp535
I0
aI0
aI0
aI0
aI0
aI0
aI0
aI0
aI0
aI0
asg26
(lp536
I0
aI0
aI0
aI0
aI0
aI0
aI0
aI0
aI0
aI0
asg28
(lp537
I0
aI0
aF0.01282051282051282
aF0.010101010101010102
aI0
aI0
aF0.011764705882352941
aI0
aI0
aF0.016949152542372881
asg30
(lp538
I0
aI0
aI0
aI0
aI0
aI0
aI0
aI0
aI0
aI0
asg32
(lp539
I0
aI0
aI0
aI0
aI0
aI0
aI0
aI0
aI0
aI0
asg34
(lp540
I0
aI0
aI0
aI0
aI0
aI0
aI0
aI0
aI0
aI0
asg36
(lp541
I0
aI0
aI0
aI0
aI0
aI0
aI0
aI0
aI0
aI0
asg38
(lp542
I0
aI0
aI0
aI0
aI0
aI0
aI0
aI0
aI0
aI0
asg40
(lp543
I0
aI0
aI0
aI0
aI0
aI0
aI0
aI0
aI0
aI0
asg42
(lp544
I0
aI0
aI0
aI0
aI0
aI0
aI0
aI0
aI0
aI0
asg44
(lp545
F0.20000000000000001
aF0.037037037037037035
aI0
aF0.20000000000000001
aI0
aI0
aF0.1111111111111111
aF0.037037037037037035
aF0.1111111111111111
aI0
asg46
(lp546
F0.016949152542372881
aF0.016949152542372881
aI0
aI0
aI0
aI0
aI0
aI0
aI0
aI0
asg48
(lp547
I0
aI0
aI0
aI0
aI0
aI0
aI0
aI0
aI0
aI0
asg50
(lp548
I0
aI0
aI0
aI0
aI0
aI0
aI0
aI0
aI0
aI0
asg52
(lp549
I0
aI0
aI0
aI0
aI0
aF0.14285714285714285
aI0
aI0
aI0
aI0
asg54
(lp550
I0
aI0
aI0
aI0
aI0
aI0
aI0
aI0
aI0
aI0
asg56
(lp551
I0
aI0
aI0
aI0
aI0
aI0
aI0
aI0
aI0
aI0
asg58
(lp552
I0
aI0
aI0
aI0
aI0
aI0
aI0
aI0
aI0
aI0
asg60
(lp553
I0
aI0
aI0
aI0
aI0
aI0
aI0
aI0
aI0
aI0
asg62
(lp554
I0
aI0
aI0
aI0
aI0
aI0
aI0
aI0
aI0
aI0
asg64
(lp555
I0
aI0
aI0
aI0
aI0
aI0
aI0
aI0
aI0
aI0
asg66
(lp556
I0
aI0
aF1
aI0
aI0
aI0
aI0
aF1
aI0
aI0
asg68
(lp557
I0
aI0
aI0
aI0
aI0
aI0
aI0
aI0
aI0
aI0
asg70
(lp558
I0
aI0
aI0
aI0
aI0
aF0.125
aI0
aI0
aI0
aI0
asg72
(lp559
I0
aI0
aI0
aI0
aI0
aI0
aI0
aI0
aI0
aI0
asg74
(lp560
I0
aI0
aI0
aI0
aI0
aF0.013513513513513514
aF0.33333333333333331
aF0.014705882352941176
aF0.33333333333333331
aI0
asg76
(lp561
I0
aI0
aI0
aI0
aI0
aI0
aI0
aI0
aI0
aI0
asg78
(lp562
I0
aI0
aI0
aI0
aI0
aI0
aI0
aI0
aI0
aI0
asg80
(lp563
I0
aI0
aI0
aI0
aI0
aI0
aI0
aI0
aI0
aI0
asg82
(lp564
I0
aF0.052631578947368418
aI0
aI0
aI0
aI0
aI0
aI0
aF0.050000000000000003
aI0
asg84
(lp565
I0
aF0.017241379310344827
aI0
aI0
aI0
aI0
aI0
aI0
aI0
aI0
asg86
(lp566
I0
aI0
aI0
aI0
aI0
aI0
aI0
aI0
aI0
aI0
asg88
(lp567
I0
aI0
aI0
aI0
aI0
aI0
aI0
aI0
aI0
aI0
asg90
(lp568
I0
aI0
aI0
aI0
aI0
aI0
aI0
aI0
aI0
aI0
asg92
(lp569
I0
aI0
aI0
aI0
aI0
aI0
aI0
aI0
aI0
aI0
asg94
(lp570
I0
aI0
aI0
aI0
aI0
aI0
aI0
aI0
aI0
aI0
asg96
(lp571
I0
aI0
aI0
aI0
aI0
aI0
aI0
aI0
aI0
aI0
asg98
(lp572
I0
aI0
aI0
aI0
aI0
aI0
aI0
aI0
aI0
aI0
asg100
(lp573
I0
aI0
aI0
aI0
aI0
aI0
aI0
aI0
aI0
aI0
asg102
(lp574
I0
aI0
aI0
aI0
aI0
aI0
aI0
aI0
aI0
aI0
asg104
(lp575
I0
aI0
aI0
aI0
aI0
aI0
aI0
aF0.020833333333333332
aI0
aI0
assS'0.1'
p576
(dp577
g6
(lp578
I0
aI0
aI0
aI0
aI0
aI0
aI0
aI0
aI0
aI0
asg8
(lp579
I0
aI0
aI0
aI0
aI0
aI0
aI0
aI0
aI0
aI0
asg10
(lp580
I0
aI0
aI0
aI0
aI0
aI0
aI0
aI0
aI0
aI0
asg12
(lp581
I0
aI0
aI0
aI0
aI0
aI0
aI0
aI0
aI0
aI0
asg14
(lp582
I0
aI0
aI0
aI0
aI0
aI0
aI0
aI0
aI0
aI0
asg16
(lp583
I0
aI0
aI0
aI0
aI0
aI0
aI0
aI0
aI0
aI0
asg18
(lp584
F0.25
aF0.1111111111111111
aF0.68840579710144922
aF1
aI0
aI0
aF1
aI0
aF0.1111111111111111
aF0.16666666666666666
asg20
(lp585
I0
aI0
aI0
aI0
aI0
aI0
aI0
aI0
aI0
aI0
asg22
(lp586
I0
aI0
aI0
aI0
aI0
aF1
aI0
aI0
aI0
aI0
asg24
(lp587
I0
aI0
aI0
aI0
aI0
aI0
aI0
aI0
aI0
aI0
asg26
(lp588
I0
aI0
aI0
aI0
aI0
aI0
aI0
aI0
aI0
aI0
asg28
(lp589
F0.092031425364758682
aF0.0625
aI0
aI0
aF0.030303030303030304
aF1
aI0
aI0
aF0.084967320261437912
aF0.087053571428571425
asg30
(lp590
F0.027027027027027029
aI0
aI0
aF0.036240786240786242
aI0
aI0
aI0
aI0
aI0
aI0
asg32
(lp591
I0
aI0
aI0
aI0
aI0
aI0
aI0
aI0
aI0
aI0
asg34
(lp592
I0
aI0
aI0
aI0
aI0
aI0
aI0
aI0
aI0
aI0
asg36
(lp593
I0
aI0
aI0
aI0
aI0
aI0
aI0
aI0
aI0
aI0
asg38
(lp594
I0
aI0
aI0
aI0
aI0
aI0
aI0
aI0
aI0
aI0
asg40
(lp595
I0
aI0
aI0
aF0.015625
aI0
aF1
aI0
aI0
aF0.015625
aI0
asg42
(lp596
I0
aI0
aI0
aI0
aI0
aI0
aI0
aI0
aI0
aI0
asg44
(lp597
F0.071428571428571425
aF0.071428571428571425
aF0.16666666666666666
aI0
aF0.33333333333333331
aF0.16666666666666666
aF0.16666666666666666
aF0.33333333333333331
aI0
aI0
asg46
(lp598
I0
aI0
aF0.5
aF1
aF0.83333333333333326
aF0.15625
aF0.5
aF0.125
aI0
aI0
asg48
(lp599
I0
aI0
aI0
aI0
aI0
aI0
aI0
aI0
aI0
aI0
asg50
(lp600
I0
aI0
aI0
aI0
aI0
aI0
aI0
aI0
aI0
aI0
asg52
(lp601
I0
aI0
aF0.032258064516129031
aI0
aI0
aI0
aI0
aI0
aI0
aI0
asg54
(lp602
I0
aI0
aI0
aI0
aI0
aI0
aI0
aI0
aI0
aI0
asg56
(lp603
I0
aI0
aI0
aI0
aI0
aI0
aI0
aI0
aI0
aI0
asg58
(lp604
I0
aI0
aI0
aI0
aI0
aI0
aI0
aI0
aI0
aI0
asg60
(lp605
I0
aF0.052631578947368418
aI0
aI0
aF0.028571428571428571
aF0.035714285714285712
aI0
aI0
aF0.032258064516129031
aI0
asg62
(lp606
I0
aI0
aF0.058823529411764705
aF0.060035842293906808
aI0
aF0.028571428571428571
aF0.060035842293906808
aI0
aF0.014925373134328358
aF0.090909090909090912
asg64
(lp607
I0
aI0
aI0
aF0.045454545454545456
aI0
aI0
aI0
aI0
aI0
aF0.045454545454545456
asg66
(lp608
F1
aI0
aI0
aI0
aI0
aF1
aI0
aI0
aF1
aI0
asg68
(lp609
I0
aI0
aI0
aI0
aI0
aI0
aI0
aI0
aI0
aI0
asg70
(lp610
F0.5
aI0
aI0
aI0
aF0.5
aI0
aI0
aI0
aI0
aF0.5
asg72
(lp611
F1
aI0
aI0
aI0
aI0
aI0
aI0
aF1
aI0
aI0
asg74
(lp612
F0.5
aI0
aF0.25
aF0.33333333333333331
aF0.20000000000000001
aF0.26315789473684209
aF0.25
aF0.20000000000000001
aF0.32692307692307693
aF0.049214226633581479
asg76
(lp613
I0
aI0
aF0.011363636363636364
aF0.021276595744680851
aI0
aI0
aI0
aI0
aF0.021739130434782608
aI0
asg78
(lp614
I0
aI0
aI0
aI0
aI0
aI0
aI0
aI0
aI0
aI0
asg80
(lp615
I0
aI0
aI0
aI0
aI0
aI0
aI0
aI0
aI0
aI0
asg82
(lp616
F0.20000000000000001
aI0
aI0
aI0
aF0.013698630136986301
aI0
aI0
aF0.20000000000000001
aI0
aI0
asg84
(lp617
F0.047619047619047616
aF0.51000000000000001
aI0
aF0.011904761904761904
aI0
aF0.011764705882352941
aF0.011363636363636364
aF0.013888888888888888
aF0.011235955056179775
aF0.020408163265306121
asg86
(lp618
I0
aI0
aI0
aI0
aI0
aI0
aI0
aI0
aI0
aI0
asg88
(lp619
I0
aI0
aF0.0625
aF0.0625
aF0.0625
aF0.0625
aI0
aF0.0625
aI0
aI0
asg90
(lp620
F0.024390243902439025
aI0
aI0
aF0.024390243902439025
aF0.026315789473684209
aF0.026315789473684209
aF0.024390243902439025
aI0
aI0
aI0
asg92
(lp621
I0
aI0
aI0
aI0
aI0
aI0
aI0
aI0
aI0
aI0
asg94
(lp622
I0
aI0
aI0
aI0
aF1
aF1
aI0
aI0
aI0
aI0
asg96
(lp623
I0
aI0
aI0
aI0
aI0
aI0
aI0
aI0
aI0
aI0
asg98
(lp624
I0
aI0
aI0
aI0
aI0
aI0
aI0
aI0
aI0
aI0
asg100
(lp625
I0
aI0
aI0
aI0
aI0
aI0
aI0
aI0
aI0
aI0
asg102
(lp626
I0
aI0
aI0
aI0
aI0
aF0.011764705882352941
aI0
aI0
aI0
aI0
asg104
(lp627
I0
aI0
aF0.041666666666666664
aI0
aI0
aI0
aI0
aF0.041666666666666664
aI0
aI0
assS'0.3'
p628
(dp629
g6
(lp630
I0
aI0
aI0
aI0
aI0
aI0
aI0
aI0
aI0
aI0
asg8
(lp631
I0
aI0
aI0
aI0
aI0
aI0
aI0
aI0
aI0
aI0
asg10
(lp632
I0
aI0
aI0
aI0
aI0
aI0
aI0
aI0
aI0
aI0
asg12
(lp633
I0
aI0
aI0
aI0
aI0
aI0
aI0
aI0
aI0
aI0
asg14
(lp634
I0
aI0
aI0
aI0
aI0
aI0
aI0
aI0
aI0
aI0
asg16
(lp635
I0
aI0
aI0
aI0
aI0
aI0
aI0
aI0
aI0
aI0
asg18
(lp636
F0.52272727272727271
aI0
aF0.035714285714285712
aI0
aF0.64285714285714279
aF0.10000000000000001
aI0
aF0.083333333333333329
aI0
aI0
asg20
(lp637
I0
aI0
aF0.030303030303030304
aI0
aI0
aI0
aI0
aI0
aI0
aI0
asg22
(lp638
F1
aI0
aF0.5
aI0
aF1
aI0
aI0
aF0.5
aI0
aI0
asg24
(lp639
I0
aI0
aI0
aI0
aI0
aI0
aI0
aI0
aI0
aI0
asg26
(lp640
I0
aI0
aI0
aI0
aI0
aI0
aI0
aI0
aI0
aI0
asg28
(lp641
I0
aF1
aF0.014084507042253521
aI0
aF0.012658227848101266
aF0.012500000000000001
aI0
aF0.021739130434782608
aI0
aI0
asg30
(lp642
I0
aI0
aI0
aI0
aI0
aF0.014285714285714285
aF0.013333333333333334
aF0.013333333333333334
aI0
aI0
asg32
(lp643
I0
aI0
aF0.027777777777777776
aI0
aI0
aI0
aI0
aI0
aI0
aI0
asg34
(lp644
I0
aI0
aI0
aI0
aI0
aI0
aI0
aI0
aI0
aI0
asg36
(lp645
I0
aI0
aI0
aI0
aI0
aI0
aI0
aI0
aI0
aI0
asg38
(lp646
I0
aI0
aI0
aI0
aI0
aI0
aI0
aI0
aI0
aI0
asg40
(lp647
I0
aI0
aI0
aF0.14285714285714285
aF0.14285714285714285
aF0.14285714285714285
aF0.14285714285714285
aI0
aI0
aI0
asg42
(lp648
I0
aI0
aI0
aI0
aI0
aI0
aI0
aI0
aI0
aI0
asg44
(lp649
F0.33333333333333331
aF0.16666666666666666
aF0.33333333333333331
aI0
aI0
aI0
aI0
aI0
aF0.33333333333333331
aF0.071428571428571425
asg46
(lp650
F0.61111111111111116
aI0
aF0.14285714285714285
aF0.14285714285714285
aF0.011764705882352941
aF0.14285714285714285
aF0.0625
aF0.10000000000000001
aF0.0625
aF0.125
asg48
(lp651
I0
aI0
aI0
aI0
aI0
aI0
aI0
aI0
aI0
aI0
asg50
(lp652
I0
aI0
aI0
aI0
aI0
aI0
aI0
aI0
aI0
aI0
asg52
(lp653
I0
aI0
aI0
aI0
aI0
aI0
aI0
aI0
aI0
aI0
asg54
(lp654
I0
aI0
aI0
aI0
aI0
aI0
aI0
aI0
aI0
aI0
asg56
(lp655
I0
aI0
aI0
aI0
aI0
aI0
aI0
aI0
aI0
aI0
asg58
(lp656
I0
aI0
aI0
aI0
aI0
aI0
aI0
aI0
aI0
aI0
asg60
(lp657
I0
aI0
aI0
aI0
aF0.10000000000000001
aI0
aI0
aI0
aI0
aI0
asg62
(lp658
F0.019230769230769232
aI0
aF0.019607843137254902
aI0
aF0.026803118908382065
aF0.015873015873015872
aF0.021276595744680851
aF0.019607843137254902
aI0
aF0.040000000000000001
asg64
(lp659
I0
aF0.043478260869565216
aI0
aI0
aI0
aI0
aF0.043478260869565216
aF0.043478260869565216
aF0.043478260869565216
aI0
asg66
(lp660
I0
aI0
aI0
aF1
aI0
aI0
aI0
aI0
aI0
aI0
asg68
(lp661
I0
aI0
aI0
aI0
aI0
aI0
aI0
aI0
aI0
aI0
asg70
(lp662
I0
aI0
aI0
aI0
aI0
aI0
aI0
aF0.16666666666666666
aI0
aI0
asg72
(lp663
I0
aI0
aI0
aI0
aI0
aF0.040000000000000001
aF0.040000000000000001
aI0
aF0.040000000000000001
aI0
asg74
(lp664
F0.020410195141377936
aF0.010416666666666666
aI0
aF0.011363636363636364
aI0
aI0
aF0.010101010101010102
aF1
aF0.2857142857142857
aF0.11538461538461539
asg76
(lp665
I0
aI0
aI0
aI0
aI0
aI0
aI0
aI0
aI0
aI0
asg78
(lp666
I0
aI0
aI0
aI0
aI0
aI0
aI0
aI0
aI0
aI0
asg80
(lp667
I0
aI0
aI0
aI0
aI0
aI0
aI0
aI0
aI0
aI0
asg82
(lp668
I0
aI0
aF0.058823529411764705
aI0
aF0.0625
aI0
aI0
aF0.055555555555555552
aI0
aI0
asg84
(lp669
I0
aI0
aF0.16666666666666666
aI0
aI0
aI0
aI0
aF0.20000000000000001
aI0
aI0
asg86
(lp670
I0
aI0
aI0
aI0
aI0
aI0
aI0
aI0
aI0
aI0
asg88
(lp671
I0
aI0
aI0
aI0
aI0
aI0
aI0
aI0
aI0
aI0
asg90
(lp672
F0.011235955056179775
aI0
aF0.011235955056179775
aI0
aI0
aF0.011235955056179775
aI0
aI0
aF0.33333333333333331
aI0
asg92
(lp673
I0
aI0
aI0
aI0
aI0
aI0
aI0
aI0
aI0
aI0
asg94
(lp674
F0.028571428571428571
aF0.018867924528301886
aI0
aI0
aI0
aI0
aI0
aI0
aI0
aI0
asg96
(lp675
I0
aI0
aI0
aI0
aI0
aI0
aI0
aI0
aI0
aI0
asg98
(lp676
I0
aI0
aI0
aI0
aI0
aI0
aI0
aI0
aI0
aI0
asg100
(lp677
I0
aI0
aI0
aI0
aI0
aI0
aI0
aI0
aI0
aI0
asg102
(lp678
I0
aI0
aI0
aI0
aF0.023809523809523808
aI0
aI0
aI0
aI0
aI0
asg104
(lp679
I0
aI0
aI0
aF0.035714285714285712
aI0
aI0
aI0
aI0
aI0
aI0
assS'0.01'
p680
(dp681
g6
(lp682
I0
aI0
aI0
aI0
aI0
aI0
aI0
aI0
aI0
aI0
asg8
(lp683
I0
aI0
aI0
aI0
aI0
aI0
aI0
aI0
aI0
aI0
asg10
(lp684
I0
aI0
aI0
aI0
aI0
aI0
aI0
aI0
aI0
aI0
asg12
(lp685
I0
aI0
aI0
aI0
aI0
aI0
aI0
aI0
aI0
aI0
asg14
(lp686
I0
aI0
aI0
aF0.25
aI0
aI0
aI0
aI0
aI0
aI0
asg16
(lp687
I0
aI0
aI0
aI0
aI0
aI0
aI0
aI0
aI0
aI0
asg18
(lp688
F0.18421052631578946
aI0
aF1
aF0.16666666666666666
aI0
aF1
aI0
aI0
aI0
aF0.1111111111111111
asg20
(lp689
I0
aI0
aI0
aF0.1111111111111111
aI0
aI0
aI0
aI0
aI0
aI0
asg22
(lp690
I0
aF1
aI0
aI0
aI0
aI0
aI0
aF1
aI0
aF1
asg24
(lp691
I0
aI0
aI0
aI0
aI0
aI0
aI0
aI0
aI0
aI0
asg26
(lp692
I0
aI0
aI0
aI0
aI0
aI0
aI0
aI0
aI0
aI0
asg28
(lp693
F0.055555555555555552
aI0
aF0.10000000000000001
aI0
aF0.034482758620689655
aF0.029411764705882353
aF0.53125
aF0.044642857142857137
aF0.41036414565826324
aI0
asg30
(lp694
I0
aI0
aF0.033008658008658008
aI0
aF0.027777777777777776
aF0.02564102564102564
aF0.030303030303030304
aI0
aI0
aI0
asg32
(lp695
I0
aF0.071428571428571425
aI0
aI0
aI0
aI0
aI0
aI0
aI0
aF0.066666666666666666
asg34
(lp696
I0
aI0
aI0
aI0
aI0
aI0
aI0
aI0
aI0
aI0
asg36
(lp697
I0
aI0
aI0
aI0
aI0
aI0
aI0
aI0
aI0
aI0
asg38
(lp698
I0
aI0
aI0
aI0
aI0
aI0
aI0
aI0
aI0
aI0
asg40
(lp699
I0
aI0
aI0
aI0
aF0.027027027027027029
aF1
aI0
aI0
aI0
aI0
asg42
(lp700
I0
aI0
aI0
aI0
aI0
aI0
aI0
aI0
aI0
aI0
asg44
(lp701
F0.33333333333333331
aF0.071428571428571425
aI0
aF0.33333333333333331
aI0
aF0.33333333333333331
aF0.33333333333333331
aF0.16666666666666666
aI0
aF0.071428571428571425
asg46
(lp702
F0.5
aF0.021739130434782608
aF0.83333333333333326
aF0.032258064516129031
aF1
aF0.83333333333333326
aI0
aF0.33333333333333331
aF0.021739130434782608
aF1
asg48
(lp703
I0
aI0
aI0
aI0
aI0
aI0
aI0
aI0
aI0
aI0
asg50
(lp704
I0
aI0
aI0
aI0
aI0
aI0
aI0
aI0
aI0
aI0
asg52
(lp705
I0
aI0
aF0.032258064516129031
aI0
aI0
aI0
aI0
aI0
aI0
aI0
asg54
(lp706
I0
aI0
aI0
aI0
aI0
aI0
aI0
aI0
aI0
aI0
asg56
(lp707
I0
aI0
aI0
aI0
aI0
aI0
aI0
aI0
aI0
aI0
asg58
(lp708
I0
aI0
aI0
aI0
aI0
aI0
aI0
aI0
aI0
aI0
asg60
(lp709
I0
aF0.1111111111111111
aI0
aI0
aI0
aI0
aI0
aI0
aI0
aF0.037037037037037035
asg62
(lp710
I0
aF0.045454545454545456
aF0.14285714285714285
aF0.045454545454545456
aI0
aI0
aI0
aF0.028571428571428571
aF0.083333333333333329
aI0
asg64
(lp711
F0.045454545454545456
aI0
aF0.045454545454545456
aI0
aI0
aI0
aI0
aF0.045454545454545456
aF0.045454545454545456
aI0
asg66
(lp712
I0
aI0
aI0
aI0
aI0
aI0
aI0
aI0
aI0
aI0
asg68
(lp713
I0
aI0
aI0
aI0
aI0
aI0
aI0
aI0
aI0
aI0
asg70
(lp714
I0
aI0
aF1
aI0
aF0.5
aI0
aI0
aF0.33333333333333331
aI0
aI0
asg72
(lp715
F1
aI0
aI0
aI0
aI0
aF1
aI0
aI0
aI0
aI0
asg74
(lp716
F0.16666666666666666
aI0
aF0.019230769230769232
aI0
aF0.16666666666666666
aF0.5
aF0.5
aI0
aF0.14196217494089833
aI0
asg76
(lp717
I0
aI0
aF0.012345679012345678
aF0.023255813953488372
aF0.022222222222222223
aF0.058823529411764705
aI0
aI0
aI0
aI0
asg78
(lp718
I0
aI0
aI0
aI0
aI0
aI0
aI0
aI0
aI0
aI0
asg80
(lp719
I0
aI0
aI0
aI0
aI0
aI0
aI0
aI0
aI0
aI0
asg82
(lp720
I0
aI0
aF0.011627906976744186
aF0.25
aI0
aI0
aF0.20000000000000001
aI0
aF0.011764705882352941
aF0.022727272727272728
asg84
(lp721
I0
aF1
aF0.015873015873015872
aI0
aI0
aF1
aI0
aI0
aI0
aI0
asg86
(lp722
I0
aI0
aI0
aI0
aI0
aI0
aI0
aI0
aI0
aI0
asg88
(lp723
I0
aI0
aF0.066666666666666666
aF0.018867924528301886
aI0
aI0
aI0
aF0.066666666666666666
aF0.019607843137254902
aF0.018867924528301886
asg90
(lp724
I0
aF0.024390243902439025
aF0.026315789473684209
aI0
aF0.024390243902439025
aF1
aF0.083333333333333329
aF0.083333333333333329
aF1
aF0.083333333333333329
asg92
(lp725
I0
aI0
aI0
aI0
aI0
aI0
aI0
aI0
aI0
aI0
asg94
(lp726
F0.14285714285714285
aF1
aI0
aF0.032258064516129031
aF0.032258064516129031
aF1
aI0
aF0.14285714285714285
aI0
aF1
asg96
(lp727
I0
aI0
aI0
aI0
aI0
aI0
aI0
aI0
aI0
aI0
asg98
(lp728
I0
aI0
aI0
aI0
aI0
aI0
aI0
aI0
aI0
aI0
asg100
(lp729
I0
aI0
aF1
aI0
aI0
aI0
aI0
aI0
aF1
aI0
asg102
(lp730
I0
aI0
aI0
aI0
aI0
aI0
aI0
aI0
aI0
aI0
asg104
(lp731
I0
aI0
aI0
aI0
aI0
aI0
aI0
aI0
aI0
aI0
assS'0.5'
p732
(dp733
g6
(lp734
I0
aI0
aI0
aI0
aI0
aI0
aI0
aI0
aI0
aI0
asg8
(lp735
I0
aI0
aI0
aI0
aI0
aI0
aI0
aI0
aI0
aI0
asg10
(lp736
I0
aI0
aI0
aI0
aI0
aI0
aI0
aI0
aI0
aI0
asg12
(lp737
I0
aI0
aI0
aI0
aI0
aI0
aI0
aI0
aI0
aI0
asg14
(lp738
I0
aI0
aI0
aI0
aI0
aI0
aI0
aI0
aI0
aI0
asg16
(lp739
I0
aI0
aI0
aI0
aI0
aI0
aI0
aI0
aI0
aI0
asg18
(lp740
F0.058823529411764705
aI0
aI0
aI0
aI0
aI0
aI0
aF0.047619047619047616
aI0
aI0
asg20
(lp741
I0
aI0
aI0
aI0
aI0
aI0
aI0
aI0
aI0
aI0
asg22
(lp742
F1
aI0
aF0.5
aI0
aI0
aI0
aF0.5
aI0
aI0
aF1
asg24
(lp743
I0
aI0
aI0
aI0
aI0
aI0
aI0
aI0
aI0
aI0
asg26
(lp744
I0
aI0
aI0
aI0
aI0
aI0
aI0
aI0
aI0
aI0
asg28
(lp745
I0
aF0.037037037037037035
aI0
aI0
aF0.055555555555555552
aF0.058823529411764705
aI0
aF0.047619047619047616
aI0
aI0
asg30
(lp746
I0
aI0
aI0
aI0
aI0
aI0
aI0
aI0
aI0
aI0
asg32
(lp747
I0
aI0
aI0
aI0
aI0
aI0
aI0
aI0
aI0
aI0
asg34
(lp748
I0
aI0
aI0
aI0
aI0
aI0
aI0
aI0
aI0
aI0
asg36
(lp749
I0
aI0
aI0
aI0
aI0
aI0
aI0
aI0
aI0
aI0
asg38
(lp750
I0
aI0
aI0
aI0
aI0
aI0
aI0
aI0
aI0
aI0
asg40
(lp751
I0
aI0
aI0
aI0
aI0
aI0
aI0
aI0
aI0
aI0
asg42
(lp752
I0
aI0
aI0
aI0
aI0
aI0
aI0
aI0
aI0
aI0
asg44
(lp753
I0
aI0
aF0.16666666666666666
aI0
aF0.25
aI0
aF0.066666666666666666
aI0
aF0.25
aI0
asg46
(lp754
I0
aF0.19090909090909092
aF0.015384615384615385
aF0.013888888888888888
aF0.017857142857142856
aI0
aI0
aI0
aF0.20000000000000001
aF0.20000000000000001
asg48
(lp755
I0
aI0
aI0
aI0
aI0
aI0
aI0
aI0
aI0
aI0
asg50
(lp756
I0
aI0
aI0
aI0
aI0
aI0
aI0
aI0
aI0
aI0
asg52
(lp757
I0
aI0
aI0
aI0
aI0
aI0
aI0
aI0
aI0
aI0
asg54
(lp758
I0
aI0
aI0
aI0
aI0
aI0
aI0
aI0
aI0
aI0
asg56
(lp759
I0
aI0
aI0
aI0
aI0
aI0
aI0
aI0
aI0
aI0
asg58
(lp760
I0
aI0
aI0
aI0
aI0
aI0
aI0
aI0
aI0
aI0
asg60
(lp761
I0
aI0
aI0
aI0
aI0
aI0
aI0
aI0
aI0
aI0
asg62
(lp762
I0
aI0
aI0
aI0
aI0
aI0
aI0
aI0
aI0
aI0
asg64
(lp763
I0
aF0.027027027027027029
aI0
aI0
aF0.027027027027027029
aI0
aI0
aF0.027027027027027029
aI0
aI0
asg66
(lp764
I0
aI0
aI0
aI0
aI0
aI0
aI0
aI0
aI0
aI0
asg68
(lp765
I0
aI0
aI0
aI0
aI0
aI0
aI0
aI0
aI0
aI0
asg70
(lp766
I0
aI0
aI0
aI0
aI0
aI0
aI0
aI0
aI0
aF0.021739130434782608
asg72
(lp767
I0
aI0
aI0
aI0
aI0
aI0
aI0
aI0
aI0
aI0
asg74
(lp768
I0
aF0.083333333333333329
aI0
aF0.25
aF0.33333333333333331
aI0
aI0
aI0
aF0.3125
aI0
asg76
(lp769
F0.058823529411764705
aI0
aI0
aI0
aI0
aI0
aF0.041666666666666664
aI0
aI0
aI0
asg78
(lp770
I0
aI0
aI0
aI0
aI0
aI0
aI0
aI0
aI0
aI0
asg80
(lp771
I0
aI0
aI0
aI0
aI0
aI0
aI0
aI0
aI0
aI0
asg82
(lp772
I0
aI0
aF0.0625
aI0
aI0
aI0
aI0
aI0
aI0
aF0.0625
asg84
(lp773
F0.083333333333333329
aF0.10000000000000001
aI0
aI0
aI0
aI0
aI0
aI0
aI0
aF0.10000000000000001
asg86
(lp774
I0
aI0
aI0
aI0
aI0
aI0
aI0
aI0
aI0
aI0
asg88
(lp775
I0
aI0
aI0
aI0
aI0
aI0
aI0
aI0
aI0
aI0
asg90
(lp776
I0
aI0
aI0
aI0
aI0
aF0.022727272727272728
aI0
aI0
aI0
aI0
asg92
(lp777
I0
aI0
aI0
aI0
aI0
aI0
aI0
aI0
aI0
aI0
asg94
(lp778
I0
aI0
aI0
aI0
aI0
aI0
aI0
aI0
aI0
aI0
asg96
(lp779
I0
aI0
aI0
aI0
aI0
aI0
aI0
aI0
aI0
aI0
asg98
(lp780
I0
aI0
aI0
aI0
aI0
aI0
aI0
aI0
aI0
aI0
asg100
(lp781
I0
aI0
aI0
aI0
aI0
aI0
aI0
aI0
aI0
aI0
asg102
(lp782
I0
aI0
aI0
aI0
aI0
aI0
aI0
aF0.021739130434782608
aI0
aI0
asg104
(lp783
I0
aI0
aF0.023809523809523808
aI0
aI0
aI0
aI0
aI0
aI0
aI0
assS'0.7'
p784
(dp785
g6
(lp786
I0
aI0
aI0
aI0
aI0
aI0
aI0
aI0
aI0
aI0
asg8
(lp787
I0
aI0
aI0
aI0
aI0
aI0
aI0
aI0
aI0
aI0
asg10
(lp788
I0
aI0
aI0
aI0
aI0
aI0
aI0
aI0
aI0
aI0
asg12
(lp789
I0
aI0
aI0
aI0
aI0
aI0
aI0
aI0
aI0
aI0
asg14
(lp790
I0
aI0
aI0
aI0
aI0
aI0
aI0
aI0
aI0
aI0
asg16
(lp791
I0
aI0
aI0
aI0
aI0
aI0
aI0
aI0
aI0
aI0
asg18
(lp792
I0
aI0
aI0
aI0
aI0
aI0
aI0
aI0
aI0
aI0
asg20
(lp793
I0
aI0
aI0
aI0
aI0
aI0
aI0
aI0
aI0
aI0
asg22
(lp794
I0
aF0.125
aI0
aI0
aI0
aI0
aF0.16666666666666666
aF0.16666666666666666
aI0
aI0
asg24
(lp795
I0
aI0
aI0
aI0
aI0
aI0
aI0
aI0
aI0
aI0
asg26
(lp796
I0
aI0
aI0
aI0
aI0
aI0
aI0
aI0
aI0
aI0
asg28
(lp797
I0
aF0.022727272727272728
aI0
aF0.018181818181818181
aF0.021739130434782608
aI0
aI0
aF0.016949152542372881
aI0
aF0.019230769230769232
asg30
(lp798
I0
aI0
aI0
aI0
aI0
aI0
aI0
aI0
aI0
aI0
asg32
(lp799
I0
aI0
aI0
aI0
aI0
aI0
aI0
aI0
aI0
aI0
asg34
(lp800
I0
aI0
aI0
aI0
aI0
aI0
aI0
aI0
aI0
aI0
asg36
(lp801
I0
aI0
aI0
aI0
aI0
aI0
aI0
aI0
aI0
aI0
asg38
(lp802
I0
aI0
aI0
aI0
aI0
aI0
aI0
aI0
aI0
aI0
asg40
(lp803
I0
aI0
aI0
aI0
aI0
aI0
aI0
aI0
aI0
aI0
asg42
(lp804
I0
aI0
aI0
aI0
aI0
aI0
aI0
aI0
aI0
aI0
asg44
(lp805
F0.1111111111111111
aI0
aF0.1111111111111111
aF0.058823529411764705
aI0
aI0
aF0.058823529411764705
aI0
aI0
aI0
asg46
(lp806
I0
aF0.037037037037037035
aF0.035714285714285712
aI0
aI0
aI0
aF0.025000000000000001
aI0
aI0
aF0.038461538461538464
asg48
(lp807
I0
aI0
aI0
aI0
aI0
aI0
aI0
aI0
aI0
aI0
asg50
(lp808
I0
aI0
aI0
aI0
aI0
aI0
aI0
aI0
aI0
aI0
asg52
(lp809
I0
aI0
aI0
aI0
aI0
aI0
aI0
aI0
aI0
aI0
asg54
(lp810
I0
aI0
aI0
aI0
aI0
aI0
aI0
aI0
aI0
aI0
asg56
(lp811
I0
aI0
aI0
aI0
aI0
aI0
aI0
aI0
aI0
aI0
asg58
(lp812
I0
aI0
aI0
aI0
aI0
aI0
aI0
aI0
aI0
aI0
asg60
(lp813
F0.038461538461538464
aI0
aF0.032258064516129031
aI0
aI0
aI0
aI0
aI0
aI0
aI0
asg62
(lp814
I0
aI0
aI0
aI0
aI0
aI0
aI0
aI0
aI0
aI0
asg64
(lp815
F0.014492753623188406
aI0
aI0
aI0
aF0.014492753623188406
aF0.014492753623188406
aI0
aF0.014492753623188406
aF0.014492753623188406
aF0.014492753623188406
asg66
(lp816
I0
aI0
aF1
aI0
aI0
aI0
aF1
aI0
aI0
aI0
asg68
(lp817
I0
aI0
aI0
aI0
aI0
aI0
aI0
aI0
aI0
aI0
asg70
(lp818
I0
aI0
aI0
aI0
aI0
aI0
aI0
aI0
aI0
aI0
asg72
(lp819
I0
aI0
aI0
aI0
aI0
aI0
aI0
aI0
aI0
aI0
asg74
(lp820
F0.024390243902439025
aI0
aI0
aI0
aI0
aF0.1858974358974359
aI0
aF0.034482758620689655
aF0.025000000000000001
aI0
asg76
(lp821
I0
aI0
aI0
aI0
aI0
aI0
aI0
aI0
aI0
aI0
asg78
(lp822
I0
aI0
aI0
aI0
aI0
aI0
aI0
aI0
aI0
aI0
asg80
(lp823
I0
aI0
aI0
aI0
aI0
aI0
aI0
aI0
aI0
aI0
asg82
(lp824
I0
aI0
aI0
aI0
aI0
aI0
aI0
aF0.066666666666666666
aI0
aI0
asg84
(lp825
I0
aI0
aF0.052631578947368418
aI0
aI0
aF0.058823529411764705
aI0
aI0
aI0
aI0
asg86
(lp826
I0
aI0
aI0
aI0
aI0
aI0
aI0
aI0
aI0
aI0
asg88
(lp827
I0
aI0
aI0
aI0
aI0
aI0
aI0
aI0
aI0
aI0
asg90
(lp828
I0
aI0
aI0
aI0
aI0
aI0
aI0
aI0
aI0
aI0
asg92
(lp829
I0
aI0
aI0
aI0
aI0
aI0
aI0
aI0
aI0
aI0
asg94
(lp830
I0
aI0
aI0
aI0
aI0
aI0
aI0
aI0
aI0
aI0
asg96
(lp831
I0
aI0
aI0
aI0
aI0
aI0
aI0
aI0
aI0
aI0
asg98
(lp832
I0
aI0
aI0
aI0
aI0
aI0
aI0
aI0
aI0
aI0
asg100
(lp833
I0
aI0
aI0
aI0
aI0
aI0
aI0
aI0
aI0
aI0
asg102
(lp834
I0
aI0
aI0
aI0
aI0
aI0
aI0
aI0
aI0
aI0
asg104
(lp835
I0
aI0
aI0
aI0
aI0
aI0
aI0
aI0
aI0
aI0
assS'0.05'
p836
(dp837
g6
(lp838
I0
aI0
aI0
aI0
aI0
aI0
aI0
aI0
aI0
aI0
asg8
(lp839
I0
aI0
aI0
aI0
aI0
aI0
aI0
aI0
aI0
aI0
asg10
(lp840
I0
aI0
aI0
aI0
aI0
aI0
aI0
aI0
aI0
aI0
asg12
(lp841
I0
aI0
aI0
aI0
aI0
aI0
aI0
aI0
aI0
aI0
asg14
(lp842
I0
aI0
aF0.25
aI0
aI0
aI0
aI0
aI0
aI0
aI0
asg16
(lp843
I0
aI0
aI0
aI0
aI0
aI0
aI0
aI0
aI0
aI0
asg18
(lp844
I0
aF1
aF1
aI0
aI0
aF0.125
aF0.25
aI0
aI0
aI0
asg20
(lp845
I0
aF0.02564102564102564
aI0
aI0
aI0
aI0
aI0
aI0
aI0
aI0
asg22
(lp846
I0
aI0
aI0
aI0
aI0
aI0
aI0
aI0
aI0
aI0
asg24
(lp847
I0
aI0
aI0
aI0
aI0
aI0
aI0
aI0
aI0
aI0
asg26
(lp848
I0
aI0
aI0
aI0
aI0
aI0
aI0
aI0
aI0
aI0
asg28
(lp849
I0
aI0
aF0.045454545454545456
aI0
aI0
aI0
aF0.10000000000000001
aF0.021276595744680851
aI0
aI0
asg30
(lp850
I0
aF0.030303030303030304
aF0.033333333333333333
aF0.02564102564102564
aF0.021276595744680851
aF0.047619047619047616
aI0
aF0.03125
aF0.03689064558629776
aF0.033008658008658008
asg32
(lp851
I0
aF0.0625
aI0
aI0
aF0.066666666666666666
aI0
aI0
aI0
aI0
aI0
asg34
(lp852
I0
aI0
aI0
aI0
aI0
aI0
aI0
aI0
aI0
aI0
asg36
(lp853
I0
aI0
aI0
aI0
aI0
aI0
aI0
aI0
aI0
aI0
asg38
(lp854
I0
aI0
aI0
aI0
aI0
aI0
aI0
aI0
aI0
aI0
asg40
(lp855
F1
aF0.026315789473684209
aF1
aI0
aF0.026315789473684209
aI0
aI0
aF1
aF0.026315789473684209
aI0
asg42
(lp856
I0
aI0
aI0
aI0
aI0
aI0
aI0
aI0
aI0
aI0
asg44
(lp857
F0.071428571428571425
aI0
aF0.071428571428571425
aF0.33333333333333331
aF0.071428571428571425
aF0.33333333333333331
aI0
aF0.33333333333333331
aI0
aF0.33333333333333331
asg46
(lp858
F1
aF1
aI0
aI0
aF0.5
aF0.83333333333333326
aF0.10000000000000001
aF0.51923076923076927
aF0.032258064516129031
aF0.83333333333333326
asg48
(lp859
I0
aI0
aI0
aI0
aI0
aI0
aI0
aI0
aI0
aI0
asg50
(lp860
I0
aI0
aI0
aI0
aI0
aI0
aI0
aI0
aI0
aI0
asg52
(lp861
I0
aI0
aI0
aI0
aI0
aI0
aI0
aI0
aI0
aI0
asg54
(lp862
I0
aI0
aI0
aI0
aI0
aI0
aI0
aI0
aI0
aI0
asg56
(lp863
I0
aI0
aI0
aI0
aI0
aI0
aI0
aI0
aI0
aI0
asg58
(lp864
I0
aI0
aI0
aI0
aI0
aI0
aI0
aI0
aI0
aI0
asg60
(lp865
F0.10000000000000001
aF0.20000000000000001
aI0
aI0
aI0
aI0
aI0
aI0
aI0
aI0
asg62
(lp866
F0.058776167471819643
aF0.066666666666666666
aI0
aI0
aI0
aF0.10000000000000001
aF0.033333333333333333
aF0.066666666666666666
aF0.10000000000000001
aF0.015151515151515152
asg64
(lp867
I0
aI0
aI0
aI0
aF0.045454545454545456
aF0.045454545454545456
aI0
aI0
aF0.045454545454545456
aI0
asg66
(lp868
I0
aF1
aI0
aI0
aI0
aI0
aI0
aI0
aI0
aI0
asg68
(lp869
I0
aI0
aI0
aI0
aI0
aI0
aI0
aI0
aI0
aI0
asg70
(lp870
I0
aI0
aF0.5
aF0.5
aI0
aI0
aF0.5
aI0
aF0.5
aI0
asg72
(lp871
F1
aI0
aI0
aI0
aI0
aI0
aI0
aI0
aI0
aI0
asg74
(lp872
F0.5
aI0
aF0.01
aI0
aI0
aF0.076923076923076927
aI0
aF0.16666666666666666
aI0
aF0.083333333333333329
asg76
(lp873
I0
aI0
aI0
aI0
aI0
aI0
aI0
aI0
aI0
aF0.011363636363636364
asg78
(lp874
I0
aI0
aI0
aI0
aI0
aI0
aI0
aI0
aI0
aI0
asg80
(lp875
I0
aI0
aI0
aI0
aI0
aI0
aI0
aI0
aI0
aI0
asg82
(lp876
F0.25
aF0.011904761904761904
aI0
aF0.01282051282051282
aF0.018518518518518517
aI0
aI0
aI0
aI0
aI0
asg84
(lp877
I0
aI0
aF0.013888888888888888
aF0.014285714285714285
aI0
aI0
aF0.013513513513513514
aI0
aI0
aF0.021739130434782608
asg86
(lp878
I0
aI0
aI0
aI0
aI0
aI0
aI0
aI0
aI0
aI0
asg88
(lp879
I0
aI0
aI0
aI0
aF0.066666666666666666
aI0
aF0.066666666666666666
aF0.066666666666666666
aI0
aF0.066666666666666666
asg90
(lp880
I0
aF0.024390243902439025
aF0.083333333333333329
aF0.083333333333333329
aF0.024390243902439025
aF0.024390243902439025
aI0
aI0
aF0.024390243902439025
aI0
asg92
(lp881
I0
aI0
aI0
aI0
aI0
aI0
aI0
aI0
aI0
aI0
asg94
(lp882
F0.033333333333333333
aF0.53125
aF0.53125
aF0.14285714285714285
aI0
aF0.14285714285714285
aI0
aI0
aF1
aI0
asg96
(lp883
I0
aI0
aI0
aI0
aI0
aI0
aI0
aI0
aI0
aI0
asg98
(lp884
I0
aI0
aI0
aI0
aI0
aI0
aI0
aI0
aI0
aI0
asg100
(lp885
I0
aI0
aF1
aF1
aI0
aI0
aI0
aI0
aI0
aF1
asg102
(lp886
I0
aF0.011627906976744186
aI0
aI0
aF0.013157894736842105
aI0
aI0
aI0
aI0
aI0
asg104
(lp887
I0
aI0
aI0
aI0
aI0
aI0
aI0
aI0
aI0
aI0
assg418
(dp888
g6
(lp889
I0
aI0
aI0
aI0
aI0
aI0
aI0
aI0
aI0
aI0
asg8
(lp890
I0
aI0
aI0
aI0
aI0
aI0
aI0
aI0
aI0
aI0
asg10
(lp891
I0
aI0
aI0
aI0
aI0
aI0
aI0
aI0
aI0
aI0
asg12
(lp892
I0
aI0
aI0
aI0
aI0
aI0
aI0
aI0
aI0
aI0
asg14
(lp893
I0
aI0
aI0
aI0
aF0.5
aI0
aI0
aI0
aI0
aI0
asg16
(lp894
I0
aI0
aI0
aI0
aI0
aI0
aI0
aI0
aI0
aI0
asg18
(lp895
I0
aI0
aF1
aI0
aI0
aF1
aI0
aF0.33333333333333331
aI0
aF0.018181818181818181
asg20
(lp896
I0
aI0
aI0
aI0
aI0
aI0
aI0
aI0
aI0
aI0
asg22
(lp897
I0
aF1
aI0
aI0
aI0
aI0
aI0
aF1
aI0
aI0
asg24
(lp898
I0
aI0
aI0
aI0
aI0
aI0
aI0
aI0
aI0
aI0
asg26
(lp899
I0
aI0
aI0
aI0
aI0
aI0
aI0
aI0
aI0
aI0
asg28
(lp900
I0
aI0
aF0.14833333333333334
aI0
aF0.14285714285714285
aF0.10000000000000001
aF0.29761904761904762
aF0.052631578947368418
aI0
aF0.047619047619047616
asg30
(lp901
F0.032258064516129031
aF0.032258064516129031
aF0.16666666666666666
aF0.044407894736842105
aF0.066666666666666666
aF0.076923076923076927
aF0.0625
aF0.063492063492063489
aF0.16666666666666666
aF0.027777777777777776
asg32
(lp902
F0.01
aF0.1111111111111111
aI0
aF0.16666666666666666
aI0
aF0.10000000000000001
aI0
aI0
aI0
aI0
asg34
(lp903
I0
aI0
aI0
aI0
aI0
aI0
aI0
aI0
aI0
aI0
asg36
(lp904
I0
aI0
aI0
aI0
aI0
aI0
aI0
aI0
aI0
aI0
asg38
(lp905
I0
aI0
aI0
aI0
aI0
aI0
aI0
aI0
aI0
aI0
asg40
(lp906
I0
aI0
aI0
aF1
aI0
aI0
aI0
aI0
aI0
aI0
asg42
(lp907
I0
aI0
aI0
aI0
aI0
aI0
aI0
aI0
aI0
aI0
asg44
(lp908
F0.33333333333333331
aF0.5
aF0.33333333333333331
aF0.5
aI0
aF0.33333333333333331
aI0
aI0
aF0.10000000000000001
aI0
asg46
(lp909
I0
aF0.83333333333333326
aF0.5
aF0.33333333333333331
aF0.010309278350515464
aF1
aF0.10000000000000001
aI0
aF0.25
aF0.25
asg48
(lp910
I0
aI0
aI0
aI0
aI0
aI0
aI0
aI0
aI0
aI0
asg50
(lp911
I0
aI0
aI0
aI0
aI0
aI0
aI0
aI0
aI0
aI0
asg52
(lp912
I0
aI0
aI0
aI0
aI0
aI0
aI0
aI0
aI0
aI0
asg54
(lp913
I0
aI0
aI0
aI0
aI0
aI0
aI0
aI0
aI0
aI0
asg56
(lp914
I0
aI0
aI0
aI0
aI0
aI0
aI0
aI0
aI0
aI0
asg58
(lp915
I0
aI0
aI0
aI0
aI0
aI0
aI0
aI0
aI0
aI0
asg60
(lp916
F0.33333333333333331
aI0
aI0
aF0.083333333333333329
aF0.090909090909090912
aI0
aI0
aI0
aI0
aI0
asg62
(lp917
F0.032258064516129031
aF0.040000000000000001
aF0.040000000000000001
aI0
aF0.029411764705882353
aI0
aF0.030303030303030304
aF0.10000000000000001
aF0.029411764705882353
aF0.032258064516129031
asg64
(lp918
F0.047619047619047616
aF0.047619047619047616
aI0
aF0.047619047619047616
aI0
aI0
aF0.047619047619047616
aF0.047619047619047616
aI0
aI0
asg66
(lp919
I0
aI0
aI0
aI0
aF1
aI0
aI0
aI0
aF1
aI0
asg68
(lp920
I0
aI0
aI0
aI0
aI0
aI0
aI0
aI0
aI0
aI0
asg70
(lp921
F0.5
aI0
aI0
aI0
aF1
aF0.5
aI0
aI0
aI0
aI0
asg72
(lp922
F0.5
aI0
aI0
aI0
aF0.5
aI0
aI0
aF0.5
aI0
aI0
asg74
(lp923
I0
aI0
aI0
aF0.051633986928104572
aI0
aF0.022222222222222223
aF0.076923076923076927
aF0.14499999999999999
aF0.050000000000000003
aI0
asg76
(lp924
F0.013333333333333334
aI0
aI0
aF0.012500000000000001
aI0
aI0
aI0
aI0
aI0
aI0
asg78
(lp925
I0
aI0
aI0
aI0
aI0
aI0
aI0
aI0
aI0
aI0
asg80
(lp926
I0
aI0
aI0
aI0
aI0
aI0
aI0
aI0
aI0
aI0
asg82
(lp927
I0
aI0
aI0
aF0.1111111111111111
aI0
aI0
aI0
aI0
aI0
aI0
asg84
(lp928
I0
aF1
aI0
aF1
aF0.014285714285714285
aF0.54166666666666663
aI0
aI0
aF0.037037037037037035
aF0.037037037037037035
asg86
(lp929
I0
aI0
aI0
aI0
aI0
aI0
aI0
aI0
aI0
aI0
asg88
(lp930
F0.037037037037037035
aI0
aI0
aI0
aI0
aI0
aI0
aI0
aF0.037037037037037035
aI0
asg90
(lp931
I0
aI0
aI0
aI0
aF0.045454545454545456
aI0
aF0.045454545454545456
aF0.1111111111111111
aI0
aF0.045454545454545456
asg92
(lp932
I0
aI0
aI0
aI0
aI0
aI0
aI0
aI0
aI0
aI0
asg94
(lp933
I0
aI0
aI0
aI0
aF1
aI0
aI0
aF1
aI0
aF0.029411764705882353
asg96
(lp934
I0
aI0
aI0
aI0
aI0
aI0
aI0
aI0
aI0
aI0
asg98
(lp935
I0
aI0
aI0
aI0
aI0
aI0
aI0
aI0
aI0
aI0
asg100
(lp936
I0
aI0
aI0
aI0
aI0
aF1
aI0
aI0
aI0
aI0
asg102
(lp937
I0
aI0
aI0
aI0
aI0
aI0
aI0
aI0
aI0
aI0
asg104
(lp938
I0
aI0
aI0
aI0
aI0
aI0
aI0
aI0
aI0
aI0
assS'0.99'
p939
(dp940
g6
(lp941
I0
aI0
aI0
aI0
aI0
aI0
aI0
aI0
aI0
aI0
asg8
(lp942
I0
aI0
aI0
aI0
aI0
aI0
aI0
aI0
aI0
aI0
asg10
(lp943
I0
aI0
aI0
aI0
aI0
aI0
aI0
aI0
aI0
aI0
asg12
(lp944
I0
aI0
aI0
aI0
aI0
aI0
aI0
aI0
aI0
aI0
asg14
(lp945
I0
aI0
aI0
aI0
aI0
aI0
aI0
aI0
aI0
aI0
asg16
(lp946
I0
aI0
aI0
aI0
aI0
aI0
aI0
aI0
aI0
aI0
asg18
(lp947
I0
aI0
aI0
aI0
aI0
aI0
aI0
aI0
aI0
aI0
asg20
(lp948
I0
aI0
aI0
aI0
aI0
aI0
aI0
aI0
aI0
aI0
asg22
(lp949
I0
aI0
aI0
aF0.090909090909090912
aI0
aI0
aI0
aI0
aI0
aF0.090909090909090912
asg24
(lp950
I0
aI0
aI0
aI0
aI0
aI0
aI0
aI0
aI0
aI0
asg26
(lp951
I0
aI0
aI0
aI0
aI0
aI0
aI0
aI0
aI0
aI0
asg28
(lp952
I0
aI0
aI0
aI0
aI0
aI0
aI0
aI0
aI0
aI0
asg30
(lp953
I0
aI0
aI0
aI0
aI0
aI0
aI0
aI0
aI0
aI0
asg32
(lp954
I0
aI0
aI0
aI0
aI0
aI0
aI0
aI0
aI0
aI0
asg34
(lp955
I0
aI0
aI0
aI0
aI0
aI0
aI0
aI0
aI0
aI0
asg36
(lp956
I0
aI0
aI0
aI0
aI0
aI0
aI0
aI0
aI0
aI0
asg38
(lp957
I0
aI0
aI0
aI0
aI0
aI0
aI0
aI0
aI0
aI0
asg40
(lp958
I0
aI0
aI0
aI0
aI0
aI0
aI0
aI0
aI0
aI0
asg42
(lp959
I0
aI0
aI0
aI0
aI0
aI0
aI0
aI0
aI0
aI0
asg44
(lp960
I0
aF0.037037037037037035
aF0.1111111111111111
aF0.20000000000000001
aF0.20000000000000001
aI0
aI0
aF0.1111111111111111
aF0.1111111111111111
aI0
asg46
(lp961
F0.01020408163265306
aI0
aI0
aF0.014925373134328358
aI0
aI0
aI0
aF0.01020408163265306
aI0
aI0
asg48
(lp962
I0
aI0
aI0
aI0
aI0
aI0
aI0
aI0
aI0
aI0
asg50
(lp963
I0
aI0
aI0
aI0
aI0
aI0
aI0
aI0
aI0
aI0
asg52
(lp964
I0
aI0
aI0
aI0
aI0
aI0
aI0
aI0
aI0
aI0
asg54
(lp965
I0
aI0
aI0
aI0
aI0
aI0
aI0
aI0
aI0
aI0
asg56
(lp966
I0
aI0
aI0
aI0
aI0
aI0
aI0
aI0
aI0
aI0
asg58
(lp967
I0
aI0
aI0
aI0
aI0
aI0
aI0
aI0
aI0
aI0
asg60
(lp968
I0
aI0
aI0
aI0
aI0
aI0
aI0
aI0
aI0
aI0
asg62
(lp969
I0
aI0
aI0
aI0
aI0
aI0
aI0
aI0
aI0
aI0
asg64
(lp970
I0
aI0
aI0
aI0
aI0
aI0
aI0
aI0
aI0
aI0
asg66
(lp971
I0
aI0
aI0
aF1
aF1
aF1
aI0
aF1
aI0
aI0
asg68
(lp972
I0
aI0
aI0
aI0
aI0
aI0
aI0
aI0
aI0
aI0
asg70
(lp973
I0
aI0
aI0
aI0
aF0.125
aI0
aI0
aI0
aI0
aI0
asg72
(lp974
I0
aI0
aI0
aI0
aI0
aI0
aI0
aI0
aI0
aI0
asg74
(lp975
I0
aF0.0625
aI0
aF0.33333333333333331
aI0
aF0.33333333333333331
aF0.012048192771084338
aF0.014084507042253521
aI0
aI0
asg76
(lp976
I0
aI0
aI0
aI0
aI0
aI0
aI0
aI0
aI0
aI0
asg78
(lp977
I0
aI0
aI0
aI0
aI0
aI0
aI0
aI0
aI0
aI0
asg80
(lp978
I0
aI0
aI0
aI0
aI0
aI0
aI0
aI0
aI0
aI0
asg82
(lp979
I0
aI0
aF0.050000000000000003
aI0
aF0.050000000000000003
aI0
aI0
aI0
aI0
aI0
asg84
(lp980
I0
aI0
aI0
aI0
aI0
aI0
aI0
aI0
aI0
aI0
asg86
(lp981
I0
aI0
aI0
aI0
aI0
aI0
aI0
aI0
aI0
aI0
asg88
(lp982
I0
aI0
aI0
aI0
aI0
aI0
aI0
aI0
aI0
aI0
asg90
(lp983
I0
aI0
aI0
aI0
aI0
aI0
aI0
aI0
aI0
aI0
asg92
(lp984
I0
aI0
aI0
aI0
aI0
aI0
aI0
aI0
aI0
aI0
asg94
(lp985
I0
aI0
aI0
aI0
aI0
aI0
aI0
aI0
aI0
aI0
asg96
(lp986
I0
aI0
aI0
aI0
aI0
aI0
aI0
aI0
aI0
aI0
asg98
(lp987
I0
aI0
aI0
aI0
aI0
aI0
aI0
aI0
aI0
aI0
asg100
(lp988
I0
aI0
aI0
aI0
aI0
aI0
aI0
aI0
aI0
aI0
asg102
(lp989
I0
aI0
aI0
aI0
aI0
aI0
aI0
aI0
aI0
aI0
asg104
(lp990
I0
aI0
aI0
aI0
aI0
aI0
aF0.020833333333333332
aI0
aF0.020833333333333332
aI0
asssS'merged'
p991
(dp992
s.